(dp0
(ccopy_reg
_reconstructor
p1
(cfeatureBasedGameState
FeatureBasedGameState
p2
c__builtin__
object
p3
Ntp4
Rp5
(S'North'
p6
I00
S'East'
p7
I00
NNI00
tp8
bS'West'
p9
tp10
g1
(cmodel
ModelEntry
p11
c__builtin__
tuple
p12
(I0
F6.66
I7
F-504.85714285714283
tp13
tp14
Rp15
s(g1
(g2
g3
Ntp16
Rp17
(g6
I01
g6
I01
NNI00
tp18
bg9
tp19
g1
(g11
g12
(I0
F29.949999999999996
I38
F-526.4473684210526
tp20
tp21
Rp22
s(g1
(g2
g3
Ntp23
Rp24
(S'North'
p25
I01
S'South'
p26
I00
NNI00
tp27
bg25
tp28
g1
(g11
g12
(I0
F4.34
I1
F-166.0
tp29
tp30
Rp31
s(g1
(g2
g3
Ntp32
Rp33
(g6
I00
g7
I01
NNI00
tp34
bg7
tp35
g1
(g11
g12
(I0
F0.82
I1
F-518.0
tp36
tp37
Rp38
s(g1
(g2
g3
Ntp39
Rp40
(S'East'
p41
I00
g41
I00
NNI00
tp42
bS'Stop'
p43
tp44
g1
(g11
g12
(I0
F6.83
I7
F-511.1428571428572
tp45
tp46
Rp47
s(g1
(g2
g3
Ntp48
Rp49
(S'East'
p50
I00
NNS'West'
p51
I01
I00
tp52
bg51
tp53
g1
(g11
g12
(I0
F3.15
I1
F-285.0
tp54
tp55
Rp56
s(g1
(g2
g3
Ntp57
Rp58
(g9
I01
g7
I00
NNI00
tp59
bS'Stop'
p60
tp61
g1
(g11
g12
(I0
F7.130000000000001
I10
F-528.7
tp62
tp63
Rp64
s(g1
(g2
g3
Ntp65
Rp66
(g6
I01
NNNNI00
tp67
bg9
tp68
g1
(g11
g12
(I0
F2.46
I7
F-584.4285714285716
tp69
tp70
Rp71
s(g1
(g2
g3
Ntp72
Rp73
(g41
I00
NNS'South'
p74
I00
I00
tp75
bg41
tp76
g1
(g11
g12
(I9
F167.70999999999998
I36
F-137.72222222222217
tp77
tp78
Rp79
s(g1
(g2
g3
Ntp80
Rp81
(S'South'
p82
I00
NNg82
I00
I00
tp83
bg60
tp84
g1
(g11
g12
(I1
F29.200000000000003
I15
F-410.33333333333337
tp85
tp86
Rp87
s(g1
(g2
g3
Ntp88
Rp89
(S'North'
p90
I00
NNS'West'
p91
I00
I00
tp92
bg43
tp93
g1
(g11
g12
(I0
F6.69
I5
F-478.40000000000003
tp94
tp95
Rp96
s(g1
(g2
g3
Ntp97
Rp98
(S'South'
p99
I01
g51
I00
NNI00
tp100
bg50
tp101
g1
(g11
g12
(I0
F0.36
I1
F-564.0
tp102
tp103
Rp104
s(g1
(g2
g3
Ntp105
Rp106
(S'West'
p107
I00
g107
I00
g107
I00
I00
tp108
bS'Stop'
p109
tp110
g1
(g11
g12
(I1
F34.04
I1
F2804.0
tp111
tp112
Rp113
s(g1
(g2
g3
Ntp114
Rp115
(g82
I01
NNNNI00
tp116
bg7
tp117
g1
(g11
g12
(I0
F11.94
I8
F-453.375
tp118
tp119
Rp120
s(g1
(g2
g3
Ntp121
Rp122
(g41
I01
NNNNI00
tp123
bg90
tp124
g1
(g11
g12
(I0
F4.43
I3
F-452.3333333333333
tp125
tp126
Rp127
s(g1
(g2
g3
Ntp128
Rp129
(g82
I01
g7
I00
NNI00
tp130
bg6
tp131
g1
(g11
g12
(I0
F1.9700000000000002
I2
F-501.5
tp132
tp133
Rp134
s(g1
(g2
g3
Ntp135
Rp136
(g82
I01
g7
I00
NNI00
tp137
bg7
tp138
g1
(g11
g12
(I0
F3.04
I2
F-448.0
tp139
tp140
Rp141
s(g1
(g2
g3
Ntp142
Rp143
(g82
I01
g82
I01
NNI00
tp144
bg60
tp145
g1
(g11
g12
(I1
F14.569999999999999
I5
F-308.6
tp146
tp147
Rp148
s(g1
(g2
g3
Ntp149
Rp150
(g6
I00
g6
I00
NNI00
tp151
bg60
tp152
g1
(g11
g12
(I4
F167.35000000000005
I133
F-482.24060150375954
tp153
tp154
Rp155
s(g1
(g2
g3
Ntp156
Rp157
(g51
I00
NNNNI01
tp158
bS'North'
p159
tp160
g1
(g11
g12
(I0
F2.28
I1
F-372.0
tp161
tp162
Rp163
s(g1
(g2
g3
Ntp164
Rp165
(g82
I01
NNNNI00
tp166
bg6
tp167
g1
(g11
g12
(I0
F10.34
I7
F-455.2857142857143
tp168
tp169
Rp170
s(g1
(g2
g3
Ntp171
Rp172
(g7
I00
g6
I00
NNI00
tp173
bg60
tp174
g1
(g11
g12
(I2
F85.86000000000001
I69
F-482.9565217391303
tp175
tp176
Rp177
s(g1
(g2
g3
Ntp178
Rp179
(S'East'
p180
I00
g180
I00
g180
I00
I00
tp181
bg109
tp182
g1
(g11
g12
(I1
F51.980000000000004
I2
F1999.0
tp183
tp184
Rp185
s(g1
(g2
g3
Ntp186
Rp187
(g99
I00
g159
I00
NNI01
tp188
bS'Stop'
p189
tp190
g1
(g11
g12
(I0
F1.5
I1
F-450.0
tp191
tp192
Rp193
s(g1
(g2
g3
Ntp194
Rp195
(g90
I00
NNg91
I00
I00
tp196
bg74
tp197
g1
(g11
g12
(I0
F1.08
I4
F-583.5
tp198
tp199
Rp200
s(g1
(g2
g3
Ntp201
Rp202
(g82
I00
NNNNI00
tp203
bg60
tp204
g1
(g11
g12
(I1
F49.79000000000001
I32
F-456.6562500000001
tp205
tp206
Rp207
s(g1
(g2
g3
Ntp208
Rp209
(g82
I00
g6
I00
NNI00
tp210
bg60
tp211
g1
(g11
g12
(I2
F65.52
I55
F-482.7272727272726
tp212
tp213
Rp214
s(g1
(g2
g3
Ntp215
Rp216
(g180
I00
g107
I00
g107
I00
I00
tp217
bg107
tp218
g1
(g11
g12
(I1
F51.980000000000004
I2
F1999.0
tp219
tp220
Rp221
s(g1
(g2
g3
Ntp222
Rp223
(g6
I01
g6
I01
NNI01
tp224
bg9
tp225
g1
(g11
g12
(I0
F1.9300000000000002
I2
F-503.5
tp226
tp227
Rp228
s(g1
(g2
g3
Ntp229
Rp230
(g9
I01
NNNNI00
tp231
bg9
tp232
g1
(g11
g12
(I1
F23.12
I7
F-270.42857142857144
tp233
tp234
Rp235
s(g1
(g2
g3
Ntp236
Rp237
(g99
I00
NNg159
I01
I00
tp238
bg50
tp239
g1
(g11
g12
(I0
F0.75
I1
F-525.0
tp240
tp241
Rp242
s(g1
(g2
g3
Ntp243
Rp244
(g6
I00
g6
I00
NNI00
tp245
bg6
tp246
g1
(g11
g12
(I24
F611.0099999999998
I313
F-409.635782747604
tp247
tp248
Rp249
s(g1
(g2
g3
Ntp250
Rp251
(g7
I00
g6
I00
NNI00
tp252
bg6
tp253
g1
(g11
g12
(I1
F63.78999999999999
I64
F-503.0937499999998
tp254
tp255
Rp256
s(g1
(g2
g3
Ntp257
Rp258
(g91
I01
NNg74
I01
I00
tp259
bg91
tp260
g1
(g11
g12
(I0
F0.88
I1
F-512.0
tp261
tp262
Rp263
s(g1
(g2
g3
Ntp264
Rp265
(g41
I01
NNg74
I01
I00
tp266
bg43
tp267
g1
(g11
g12
(I0
F2.42
I1
F-358.0
tp268
tp269
Rp270
s(g1
(g2
g3
Ntp271
Rp272
(g6
I00
NNNNI00
tp273
bg7
tp274
g1
(g11
g12
(I0
F30.089999999999996
I23
F-471.82608695652164
tp275
tp276
Rp277
s(g1
(g2
g3
Ntp278
Rp279
(g9
I00
g82
I01
NNI00
tp280
bg60
tp281
g1
(g11
g12
(I0
F2.9699999999999998
I4
F-525.75
tp282
tp283
Rp284
s(g1
(g2
g3
Ntp285
Rp286
(g82
I00
g82
I00
NNI00
tp287
bg60
tp288
g1
(g11
g12
(I3
F41.730000000000004
I14
F-301.92857142857144
tp289
tp290
Rp291
s(g1
(g2
g3
Ntp292
Rp293
(g26
I00
g26
I00
g180
I00
I00
tp294
bg26
tp295
g1
(g11
g12
(I0
F17.94
I1
F1194.0
tp296
tp297
Rp298
s(g1
(g2
g3
Ntp299
Rp300
(g41
I01
g90
I01
NNI00
tp301
bg43
tp302
g1
(g11
g12
(I0
F0.67
I1
F-533.0
tp303
tp304
Rp305
s(g1
(g2
g3
Ntp306
Rp307
(g41
I00
NNNNI00
tp308
bg41
tp309
g1
(g11
g12
(I9
F201.79000000000002
I63
F-286.2222222222223
tp310
tp311
Rp312
s(g1
(g2
g3
Ntp313
Rp314
(g25
I01
g26
I00
NNI00
tp315
bg26
tp316
g1
(g11
g12
(I0
F4.34
I1
F-166.0
tp317
tp318
Rp319
s(g1
(g2
g3
Ntp320
Rp321
(g25
I00
g26
I00
g25
I00
I00
tp322
bg26
tp323
g1
(g11
g12
(I0
F22.28
I2
F514.0
tp324
tp325
Rp326
s(g1
(g2
g3
Ntp327
Rp328
(g90
I00
NNg91
I00
I00
tp329
bg91
tp330
g1
(g11
g12
(I0
F8.02
I5
F-439.6
tp331
tp332
Rp333
s(g1
(g2
g3
Ntp334
Rp335
(g91
I00
NNg74
I00
I00
tp336
bg43
tp337
g1
(g11
g12
(I0
F3.82
I3
F-518.3333333333333
tp338
tp339
Rp340
s(g1
(g2
g3
Ntp341
Rp342
(g99
I01
g51
I01
NNI00
tp343
bg189
tp344
g1
(g11
g12
(I0
F0.0
I1
F-630.0
tp345
tp346
Rp347
s(g1
(g2
g3
Ntp348
Rp349
(g25
I00
g25
I00
g107
I00
I00
tp350
bg25
tp351
g1
(g11
g12
(I1
F34.04
I1
F2804.0
tp352
tp353
Rp354
s(g1
(g2
g3
Ntp355
Rp356
(g41
I00
NNg90
I01
I00
tp357
bg43
tp358
g1
(g11
g12
(I0
F2.38
I1
F-362.0
tp359
tp360
Rp361
s(g1
(g2
g3
Ntp362
Rp363
(g6
I01
g6
I01
NNI00
tp364
bg6
tp365
g1
(g11
g12
(I2
F95.38
I45
F-402.57777777777767
tp366
tp367
Rp368
s(g1
(g2
g3
Ntp369
Rp370
(g6
I01
g6
I01
NNI00
tp371
bg7
tp372
g1
(g11
g12
(I0
F30.589999999999996
I37
F-530.8108108108107
tp373
tp374
Rp375
s(g1
(g2
g3
Ntp376
Rp377
(g90
I00
NNg74
I00
I00
tp378
bg74
tp379
g1
(g11
g12
(I0
F0.32
I1
F-568.0
tp380
tp381
Rp382
s(g1
(g2
g3
Ntp383
Rp384
(g41
I00
NNNNI00
tp385
bg43
tp386
g1
(g11
g12
(I0
F29.849999999999994
I23
F-471.13043478260863
tp387
tp388
Rp389
s(g1
(g2
g3
Ntp390
Rp391
(g82
I00
NNNNI00
tp392
bg82
tp393
g1
(g11
g12
(I11
F254.9
I80
F-286.86249999999984
tp394
tp395
Rp396
s(g1
(g2
g3
Ntp397
Rp398
(g82
I00
g6
I00
NNI00
tp399
bg9
tp400
g1
(g11
g12
(I0
F47.230000000000004
I48
F-504.6249999999999
tp401
tp402
Rp403
s(g1
(g2
g3
Ntp404
Rp405
(g82
I00
NNNNI00
tp406
bg7
tp407
g1
(g11
g12
(I1
F59.65000000000002
I32
F-415.06250000000006
tp408
tp409
Rp410
s(g1
(g2
g3
Ntp411
Rp412
(g6
I00
NNNNI00
tp413
bg6
tp414
g1
(g11
g12
(I10
F227.53000000000003
I66
F-261.19696969696946
tp415
tp416
Rp417
s(g1
(g2
g3
Ntp418
Rp419
(g82
I01
NNNNI00
tp420
bg9
tp421
g1
(g11
g12
(I0
F10.81
I8
F-475.125
tp422
tp423
Rp424
s(g1
(g2
g3
Ntp425
Rp426
(g9
I00
g82
I01
NNI00
tp427
bg9
tp428
g1
(g11
g12
(I1
F17.37
I6
F-310.5
tp429
tp430
Rp431
s(g1
(g2
g3
Ntp432
Rp433
(g51
I00
g159
I00
NNI01
tp434
bg51
tp435
g1
(g11
g12
(I0
F1.5
I1
F-450.0
tp436
tp437
Rp438
s(g1
(g2
g3
Ntp439
Rp440
(g26
I00
g26
I00
g25
I00
I00
tp441
bg26
tp442
g1
(g11
g12
(I0
F4.34
I1
F-166.0
tp443
tp444
Rp445
s(g1
(g2
g3
Ntp446
Rp447
(g26
I00
g107
I00
g180
I00
I00
tp448
bg107
tp449
g1
(g11
g12
(I0
F17.94
I1
F1194.0
tp450
tp451
Rp452
s(g1
(g2
g3
Ntp453
Rp454
(g6
I00
g6
I00
NNI00
tp455
bg7
tp456
g1
(g11
g12
(I1
F108.10000000000004
I115
F-507.8869565217393
tp457
tp458
Rp459
s(g1
(g2
g3
Ntp460
Rp461
(g99
I00
NNg159
I01
I00
tp462
bg159
tp463
g1
(g11
g12
(I0
F1.32
I1
F-468.0
tp464
tp465
Rp466
s(g1
(g2
g3
Ntp467
Rp468
(g99
I00
g159
I00
NNI01
tp469
bg99
tp470
g1
(g11
g12
(I1
F11.44
I2
F-28.0
tp471
tp472
Rp473
s(g1
(g2
g3
Ntp474
Rp475
(g51
I00
g50
I00
NNI00
tp476
bg99
tp477
g1
(g11
g12
(I0
F1.26
I1
F-474.0
tp478
tp479
Rp480
s(g1
(g2
g3
Ntp481
Rp482
(g50
I00
g51
I01
NNI00
tp483
bg189
tp484
g1
(g11
g12
(I0
F1.0
I1
F-500.0
tp485
tp486
Rp487
s(g1
(g2
g3
Ntp488
Rp489
(g41
I01
NNNNI00
tp490
bg74
tp491
g1
(g11
g12
(I0
F1.31
I3
F-602.0
tp492
tp493
Rp494
s(g1
(g2
g3
Ntp495
Rp496
(g9
I01
g6
I00
NNI00
tp497
bg60
tp498
g1
(g11
g12
(I5
F68.1
I20
F-260.24999999999994
tp499
tp500
Rp501
s(g1
(g2
g3
Ntp502
Rp503
(g6
I01
NNNNI00
tp504
bg7
tp505
g1
(g11
g12
(I0
F2.3200000000000003
I6
F-584.1666666666667
tp506
tp507
Rp508
s(g1
(g2
g3
Ntp509
Rp510
(g25
I00
g26
I00
g26
I00
I00
tp511
bg109
tp512
g1
(g11
g12
(I1
F34.04
I1
F2804.0
tp513
tp514
Rp515
s(g1
(g2
g3
Ntp516
Rp517
(g74
I00
NNg91
I00
I00
tp518
bg74
tp519
g1
(g11
g12
(I0
F3.61
I5
F-536.1999999999999
tp520
tp521
Rp522
s(g1
(g2
g3
Ntp523
Rp524
(g9
I01
g7
I00
NNI00
tp525
bg9
tp526
g1
(g11
g12
(I0
F9.64
I10
F-503.6
tp527
tp528
Rp529
s(g1
(g2
g3
Ntp530
Rp531
(g9
I00
g7
I00
NNI00
tp532
bg9
tp533
g1
(g11
g12
(I13
F224.89000000000001
I53
F-175.67924528301876
tp534
tp535
Rp536
s(g1
(g2
g3
Ntp537
Rp538
(g90
I00
g90
I00
NNI01
tp539
bg41
tp540
g1
(g11
g12
(I0
F2.7800000000000002
I3
F-507.33333333333326
tp541
tp542
Rp543
s(g1
(g2
g3
Ntp544
Rp545
(g91
I00
g91
I00
NNI00
tp546
bg43
tp547
g1
(g11
g12
(I0
F3.4
I4
F-518.75
tp548
tp549
Rp550
s(g1
(g2
g3
Ntp551
Rp552
(g41
I01
NNNNI00
tp553
bg43
tp554
g1
(g11
g12
(I1
F37.96
I4
F343.75
tp555
tp556
Rp557
s(g1
(g2
g3
Ntp558
Rp559
(g41
I00
g91
I01
NNI00
tp560
bg91
tp561
g1
(g11
g12
(I0
F0.73
I1
F-527.0
tp562
tp563
Rp564
s(g1
(g2
g3
Ntp565
Rp566
(g82
I01
g7
I00
NNI00
tp567
bg60
tp568
g1
(g11
g12
(I0
F3.68
I4
F-508.0
tp569
tp570
Rp571
s(g1
(g2
g3
Ntp572
Rp573
(g6
I00
NNg6
I00
I00
tp574
bg82
tp575
g1
(g11
g12
(I0
F9.56
I9
F-509.8888888888888
tp576
tp577
Rp578
s(g1
(g2
g3
Ntp579
Rp580
(g9
I00
NNNNI00
tp581
bg82
tp582
g1
(g11
g12
(I1
F50.33000000000001
I24
F-395.5416666666667
tp583
tp584
Rp585
s(g1
(g2
g3
Ntp586
Rp587
(g159
I01
g50
I00
NNI00
tp588
bg159
tp589
g1
(g11
g12
(I0
F1.12
I1
F-488.0
tp590
tp591
Rp592
s(g1
(g2
g3
Ntp593
Rp594
(g41
I01
NNg41
I01
I00
tp595
bg43
tp596
g1
(g11
g12
(I0
F2.42
I1
F-358.0
tp597
tp598
Rp599
s(g1
(g2
g3
Ntp600
Rp601
(g6
I00
g6
I00
NNI00
tp602
bg82
tp603
g1
(g11
g12
(I1
F107.34
I116
F-517.1465517241381
tp604
tp605
Rp606
s(g1
(g2
g3
Ntp607
Rp608
(g6
I00
NNg6
I00
I00
tp609
bg60
tp610
g1
(g11
g12
(I0
F16.35
I9
F-418.3333333333333
tp611
tp612
Rp613
s(g1
(g2
g3
Ntp614
Rp615
(g82
I01
g6
I00
NNI00
tp616
bg9
tp617
g1
(g11
g12
(I0
F3.75
I3
F-474.99999999999994
tp618
tp619
Rp620
s(g1
(g2
g3
Ntp621
Rp622
(g41
I01
NNNNI00
tp623
bg41
tp624
g1
(g11
g12
(I0
F4.68
I2
F-366.0
tp625
tp626
Rp627
s(g1
(g2
g3
Ntp628
Rp629
(g51
I00
NNg159
I01
I00
tp630
bg51
tp631
g1
(g11
g12
(I0
F0.28
I1
F-572.0
tp632
tp633
Rp634
s(g1
(g2
g3
Ntp635
Rp636
(g6
I00
NNg6
I00
I00
tp637
bg9
tp638
g1
(g11
g12
(I0
F12.95
I9
F-462.88888888888886
tp639
tp640
Rp641
s(g1
(g2
g3
Ntp642
Rp643
(g41
I00
NNg74
I01
I00
tp644
bg41
tp645
g1
(g11
g12
(I0
F5.99
I4
F-450.25
tp646
tp647
Rp648
s(g1
(g2
g3
Ntp649
Rp650
(g74
I00
g91
I00
NNI00
tp651
bg74
tp652
g1
(g11
g12
(I8
F156.58
I37
F-186.6756756756758
tp653
tp654
Rp655
s(g1
(g2
g3
Ntp656
Rp657
(g6
I01
NNg6
I01
I00
tp658
bg60
tp659
g1
(g11
g12
(I0
F2.47
I1
F-353.0
tp660
tp661
Rp662
s(g1
(g2
g3
Ntp663
Rp664
(g51
I00
NNg159
I00
I01
tp665
bg189
tp666
g1
(g11
g12
(I0
F0.28
I1
F-572.0
tp667
tp668
Rp669
s(g1
(g2
g3
Ntp670
Rp671
(g90
I00
NNg90
I00
I01
tp672
bg90
tp673
g1
(g11
g12
(I0
F0.75
I3
F-601.6666666666666
tp674
tp675
Rp676
s(g1
(g2
g3
Ntp677
Rp678
(g6
I00
NNg82
I01
I00
tp679
bg6
tp680
g1
(g11
g12
(I1
F13.71
I3
F-143.0
tp681
tp682
Rp683
s(g1
(g2
g3
Ntp684
Rp685
(g41
I01
g90
I00
NNI00
tp686
bg43
tp687
g1
(g11
g12
(I0
F19.05
I3
F-7.666666666666629
tp688
tp689
Rp690
s(g1
(g2
g3
Ntp691
Rp692
(g82
I00
g7
I01
NNI00
tp693
bg60
tp694
g1
(g11
g12
(I0
F0.78
I1
F-522.0
tp695
tp696
Rp697
s(g1
(g2
g3
Ntp698
Rp699
(g6
I00
g7
I01
NNI00
tp700
bg6
tp701
g1
(g11
g12
(I0
F2.14
I2
F-493.0
tp702
tp703
Rp704
s(g1
(g2
g3
Ntp705
Rp706
(g6
I00
NNg82
I00
I00
tp707
bg9
tp708
g1
(g11
g12
(I0
F2.83
I2
F-498.5
tp709
tp710
Rp711
s(g1
(g2
g3
Ntp712
Rp713
(g159
I01
g159
I01
NNI01
tp714
bg50
tp715
g1
(g11
g12
(I0
F1.09
I1
F-491.0
tp716
tp717
Rp718
s(g1
(g2
g3
Ntp719
Rp720
(g9
I01
NNNNI00
tp721
bg7
tp722
g1
(g11
g12
(I0
F9.18
I5
F-428.6
tp723
tp724
Rp725
s(g1
(g2
g3
Ntp726
Rp727
(g25
I00
g25
I00
g180
I00
I00
tp728
bg107
tp729
g1
(g11
g12
(I1
F34.04
I1
F2804.0
tp730
tp731
Rp732
s(g1
(g2
g3
Ntp733
Rp734
(g50
I01
NNg50
I01
I00
tp735
bg51
tp736
g1
(g11
g12
(I0
F0.47
I1
F-553.0
tp737
tp738
Rp739
s(g1
(g2
g3
Ntp740
Rp741
(g6
I00
NNg6
I00
I00
tp742
bg6
tp743
g1
(g11
g12
(I8
F124.06999999999998
I29
F-179.2758620689655
tp744
tp745
Rp746
s(g1
(g2
g3
Ntp747
Rp748
(g6
I00
NNNNI00
tp749
bg9
tp750
g1
(g11
g12
(I0
F33.620000000000005
I24
F-461.0833333333333
tp751
tp752
Rp753
s(g1
(g2
g3
Ntp754
Rp755
(g159
I00
NNg159
I00
I01
tp756
bg99
tp757
g1
(g11
g12
(I0
F0.28
I1
F-572.0
tp758
tp759
Rp760
s(g1
(g2
g3
Ntp761
Rp762
(g9
I00
g82
I01
NNI00
tp763
bg82
tp764
g1
(g11
g12
(I0
F3.3000000000000003
I4
F-517.5
tp765
tp766
Rp767
s(g1
(g2
g3
Ntp768
Rp769
(g74
I00
NNg91
I01
I00
tp770
bg43
tp771
g1
(g11
g12
(I0
F2.01
I1
F-399.0
tp772
tp773
Rp774
s(g1
(g2
g3
Ntp775
Rp776
(g82
I01
g7
I01
NNI00
tp777
bg60
tp778
g1
(g11
g12
(I1
F12.100000000000001
I2
F5.0
tp779
tp780
Rp781
s(g1
(g2
g3
Ntp782
Rp783
(g99
I00
g51
I01
NNI00
tp784
bg50
tp785
g1
(g11
g12
(I0
F0.0
I1
F-655.0
tp786
tp787
Rp788
s(g1
(g2
g3
Ntp789
Rp790
(g41
I01
g90
I01
NNI00
tp791
bg90
tp792
g1
(g11
g12
(I0
F0.0
I1
F-680.0
tp793
tp794
Rp795
s(g1
(g2
g3
Ntp796
Rp797
(g41
I00
g91
I00
NNI00
tp798
bg41
tp799
g1
(g11
g12
(I2
F74.87
I20
F-229.90000000000003
tp800
tp801
Rp802
s(g1
(g2
g3
Ntp803
Rp804
(g82
I00
g6
I00
NNI00
tp805
bg6
tp806
g1
(g11
g12
(I1
F57.99000000000001
I51
F-489.2941176470588
tp807
tp808
Rp809
s(g1
(g2
g3
Ntp810
Rp811
(g82
I00
g6
I01
NNI00
tp812
bg6
tp813
g1
(g11
g12
(I0
F6.1
I6
F-498.33333333333337
tp814
tp815
Rp816
s(g1
(g2
g3
Ntp817
Rp818
(g9
I00
NNg6
I00
I01
tp819
bg9
tp820
g1
(g11
g12
(I1
F10.94
I2
F-93.0
tp821
tp822
Rp823
s(g1
(g2
g3
Ntp824
Rp825
(g99
I00
g50
I01
NNI00
tp826
bg159
tp827
g1
(g11
g12
(I0
F1.31
I1
F-469.0
tp828
tp829
Rp830
s(g1
(g2
g3
Ntp831
Rp832
(g9
I00
NNg7
I01
I00
tp833
bg9
tp834
g1
(g11
g12
(I1
F10.94
I2
F-93.0
tp835
tp836
Rp837
s(g1
(g2
g3
Ntp838
Rp839
(g6
I01
g6
I01
NNI00
tp840
bg60
tp841
g1
(g11
g12
(I0
F30.579999999999995
I38
F-522.7631578947369
tp842
tp843
Rp844
s(g1
(g2
g3
Ntp845
Rp846
(g6
I00
g7
I00
NNI00
tp847
bg60
tp848
g1
(g11
g12
(I0
F6.239999999999999
I7
F-510.85714285714283
tp849
tp850
Rp851
s(g1
(g2
g3
Ntp852
Rp853
(g7
I00
g6
I01
NNI00
tp854
bg7
tp855
g1
(g11
g12
(I1
F17.39
I10
F-426.09999999999997
tp856
tp857
Rp858
s(g1
(g2
g3
Ntp859
Rp860
(g9
I00
NNg82
I00
I00
tp861
bg9
tp862
g1
(g11
g12
(I7
F110.29999999999998
I11
F396.8181818181818
tp863
tp864
Rp865
s(g1
(g2
g3
Ntp866
Rp867
(g41
I00
NNg90
I00
I00
tp868
bg43
tp869
g1
(g11
g12
(I0
F2.98
I3
F-521.0
tp870
tp871
Rp872
s(g1
(g2
g3
Ntp873
Rp874
(g90
I00
NNg41
I00
I00
tp875
bg90
tp876
g1
(g11
g12
(I0
F0.28
I2
F-618.5
tp877
tp878
Rp879
s(g1
(g2
g3
Ntp880
Rp881
(g91
I00
NNg90
I00
I00
tp882
bg91
tp883
g1
(g11
g12
(I8
F107.49999999999999
I12
F295.83333333333337
tp884
tp885
Rp886
s(g1
(g2
g3
Ntp887
Rp888
(g82
I00
g82
I00
NNI00
tp889
bg7
tp890
g1
(g11
g12
(I0
F6.83
I8
F-514.625
tp891
tp892
Rp893
s(g1
(g2
g3
Ntp894
Rp895
(g6
I00
NNNNI00
tp896
bg60
tp897
g1
(g11
g12
(I1
F46.13000000000002
I26
F-430.1923076923078
tp898
tp899
Rp900
s(g1
(g2
g3
Ntp901
Rp902
(g9
I00
NNg82
I01
I00
tp903
bg9
tp904
g1
(g11
g12
(I0
F2.57
I2
F-511.5
tp905
tp906
Rp907
s(g1
(g2
g3
Ntp908
Rp909
(g90
I00
NNg41
I00
I00
tp910
bg74
tp911
g1
(g11
g12
(I0
F2.08
I1
F-392.0
tp912
tp913
Rp914
s(g1
(g2
g3
Ntp915
Rp916
(g6
I01
g7
I00
NNI00
tp917
bg9
tp918
g1
(g11
g12
(I0
F1.7999999999999998
I2
F-510.0
tp919
tp920
Rp921
s(g1
(g2
g3
Ntp922
Rp923
(g82
I00
g7
I00
NNI00
tp924
bg7
tp925
g1
(g11
g12
(I0
F1.85
I3
F-547.6666666666666
tp926
tp927
Rp928
s(g1
(g2
g3
Ntp929
Rp930
(g9
I00
NNg9
I00
I00
tp931
bg82
tp932
g1
(g11
g12
(I0
F5.2
I6
F-513.3333333333334
tp933
tp934
Rp935
s(g1
(g2
g3
Ntp936
Rp937
(g74
I00
NNg74
I00
I00
tp938
bg90
tp939
g1
(g11
g12
(I0
F2.01
I1
F-399.0
tp940
tp941
Rp942
s(g1
(g2
g3
Ntp943
Rp944
(g25
I00
g26
I00
g180
I00
I00
tp945
bg26
tp946
g1
(g11
g12
(I0
F4.34
I1
F-166.0
tp947
tp948
Rp949
s(g1
(g2
g3
Ntp950
Rp951
(g26
I00
g107
I00
g107
I00
I00
tp952
bg109
tp953
g1
(g11
g12
(I0
F17.94
I1
F1194.0
tp954
tp955
Rp956
s(g1
(g2
g3
Ntp957
Rp958
(g74
I01
NNg74
I01
I00
tp959
bg90
tp960
g1
(g11
g12
(I0
F0.76
I1
F-524.0
tp961
tp962
Rp963
s(g1
(g2
g3
Ntp964
Rp965
(g90
I01
g41
I00
NNI00
tp966
bg74
tp967
g1
(g11
g12
(I0
F1.01
I1
F-499.0
tp968
tp969
Rp970
s(g1
(g2
g3
Ntp971
Rp972
(g6
I00
g6
I00
NNI00
tp973
bg9
tp974
g1
(g11
g12
(I1
F113.64000000000004
I116
F-505.48275862068994
tp975
tp976
Rp977
s(g1
(g2
g3
Ntp978
Rp979
(g50
I01
g51
I00
NNI00
tp980
bg99
tp981
g1
(g11
g12
(I0
F0.54
I1
F-546.0
tp982
tp983
Rp984
s(g1
(g2
g3
Ntp985
Rp986
(g99
I01
g51
I01
NNI00
tp987
bg99
tp988
g1
(g11
g12
(I0
F2.27
I1
F-373.0
tp989
tp990
Rp991
s(g1
(g2
g3
Ntp992
Rp993
(g9
I01
g6
I00
NNI00
tp994
bg9
tp995
g1
(g11
g12
(I0
F6.02
I9
F-542.2222222222222
tp996
tp997
Rp998
s(g1
(g2
g3
Ntp999
Rp1000
(g6
I00
NNg82
I00
I00
tp1001
bg60
tp1002
g1
(g11
g12
(I2
F45.86
I4
F530.25
tp1003
tp1004
Rp1005
s(g1
(g2
g3
Ntp1006
Rp1007
(g51
I01
g159
I01
NNI00
tp1008
bg50
tp1009
g1
(g11
g12
(I0
F0.86
I1
F-514.0
tp1010
tp1011
Rp1012
s(g1
(g2
g3
Ntp1013
Rp1014
(g9
I01
NNNNI00
tp1015
bg82
tp1016
g1
(g11
g12
(I0
F8.78
I5
F-424.4
tp1017
tp1018
Rp1019
s(g1
(g2
g3
Ntp1020
Rp1021
(g159
I01
NNNNI01
tp1022
bg99
tp1023
g1
(g11
g12
(I0
F0.28
I1
F-572.0
tp1024
tp1025
Rp1026
s(g1
(g2
g3
Ntp1027
Rp1028
(g25
I00
g25
I00
g180
I00
I00
tp1029
bg180
tp1030
g1
(g11
g12
(I1
F34.04
I1
F2804.0
tp1031
tp1032
Rp1033
s(g1
(g2
g3
Ntp1034
Rp1035
(g25
I00
g25
I00
g180
I00
I00
tp1036
bg25
tp1037
g1
(g11
g12
(I1
F34.04
I1
F2804.0
tp1038
tp1039
Rp1040
s(g1
(g2
g3
Ntp1041
Rp1042
(g41
I01
NNg74
I01
I00
tp1043
bg74
tp1044
g1
(g11
g12
(I0
F0.0
I1
F-737.0
tp1045
tp1046
Rp1047
s(g1
(g2
g3
Ntp1048
Rp1049
(g99
I01
g51
I00
NNI00
tp1050
bg99
tp1051
g1
(g11
g12
(I0
F0.7
I1
F-530.0
tp1052
tp1053
Rp1054
s(g1
(g2
g3
Ntp1055
Rp1056
(g90
I00
NNg41
I00
I00
tp1057
bg43
tp1058
g1
(g11
g12
(I0
F0.0
I1
F-737.0
tp1059
tp1060
Rp1061
s(g1
(g2
g3
Ntp1062
Rp1063
(g6
I00
g7
I01
NNI00
tp1064
bg9
tp1065
g1
(g11
g12
(I1
F11.51
I2
F-24.5
tp1066
tp1067
Rp1068
s(g1
(g2
g3
Ntp1069
Rp1070
(g82
I01
NNNNI00
tp1071
bg82
tp1072
g1
(g11
g12
(I0
F13.319999999999999
I8
F-433.5
tp1073
tp1074
Rp1075
s(g1
(g2
g3
Ntp1076
Rp1077
(g82
I00
g82
I00
NNI00
tp1078
bg82
tp1079
g1
(g11
g12
(I14
F223.03
I35
F37.22857142857147
tp1080
tp1081
Rp1082
s(g1
(g2
g3
Ntp1083
Rp1084
(g51
I00
NNg50
I00
I00
tp1085
bg189
tp1086
g1
(g11
g12
(I0
F2.88
I1
F-312.0
tp1087
tp1088
Rp1089
s(g1
(g2
g3
Ntp1090
Rp1091
(g6
I00
g7
I00
NNI00
tp1092
bg82
tp1093
g1
(g11
g12
(I1
F17.900000000000002
I9
F-401.1111111111111
tp1094
tp1095
Rp1096
s(g1
(g2
g3
Ntp1097
Rp1098
(g6
I00
NNg9
I01
I00
tp1099
bg9
tp1100
g1
(g11
g12
(I0
F2.8
I1
F-320.0
tp1101
tp1102
Rp1103
s(g1
(g2
g3
Ntp1104
Rp1105
(g50
I01
NNg50
I01
I00
tp1106
bg99
tp1107
g1
(g11
g12
(I0
F0.9
I1
F-510.0
tp1108
tp1109
Rp1110
s(g1
(g2
g3
Ntp1111
Rp1112
(g50
I01
g50
I01
NNI00
tp1113
bg50
tp1114
g1
(g11
g12
(I0
F0.56
I1
F-544.0
tp1115
tp1116
Rp1117
s(g1
(g2
g3
Ntp1118
Rp1119
(g82
I00
NNg7
I01
I00
tp1120
bg60
tp1121
g1
(g11
g12
(I1
F13.65
I2
F82.5
tp1122
tp1123
Rp1124
s(g1
(g2
g3
Ntp1125
Rp1126
(g26
I00
g107
I00
g107
I00
I00
tp1127
bg180
tp1128
g1
(g11
g12
(I0
F17.94
I1
F1194.0
tp1129
tp1130
Rp1131
s(g1
(g2
g3
Ntp1132
Rp1133
(g41
I01
g41
I01
NNI00
tp1134
bg43
tp1135
g1
(g11
g12
(I0
F0.12
I1
F-588.0
tp1136
tp1137
Rp1138
s(g1
(g2
g3
Ntp1139
Rp1140
(g90
I00
NNg74
I01
I00
tp1141
bg74
tp1142
g1
(g11
g12
(I0
F2.92
I1
F-308.0
tp1143
tp1144
Rp1145
s(g1
(g2
g3
Ntp1146
Rp1147
(g50
I01
g159
I00
NNI00
tp1148
bg159
tp1149
g1
(g11
g12
(I0
F0.47
I1
F-553.0
tp1150
tp1151
Rp1152
s(g1
(g2
g3
Ntp1153
Rp1154
(g41
I00
NNg74
I00
I00
tp1155
bg43
tp1156
g1
(g11
g12
(I0
F11.91
I12
F-502.91666666666663
tp1157
tp1158
Rp1159
s(g1
(g2
g3
Ntp1160
Rp1161
(g82
I01
g6
I00
NNI00
tp1162
bg60
tp1163
g1
(g11
g12
(I1
F16.240000000000002
I5
F-281.20000000000005
tp1164
tp1165
Rp1166
s(g1
(g2
g3
Ntp1167
Rp1168
(g9
I00
NNg9
I00
I00
tp1169
bg9
tp1170
g1
(g11
g12
(I7
F117.71
I24
F-110.70833333333327
tp1171
tp1172
Rp1173
s(g1
(g2
g3
Ntp1174
Rp1175
(g90
I00
NNg41
I00
I00
tp1176
bg91
tp1177
g1
(g11
g12
(I0
F0.0
I1
F-665.0
tp1178
tp1179
Rp1180
s(g1
(g2
g3
Ntp1181
Rp1182
(g6
I01
NNNNI01
tp1183
bg9
tp1184
g1
(g11
g12
(I0
F0.28
I2
F-600.0
tp1185
tp1186
Rp1187
s(g1
(g2
g3
Ntp1188
Rp1189
(g74
I00
NNg90
I00
I00
tp1190
bg91
tp1191
g1
(g11
g12
(I0
F1.9100000000000001
I4
F-567.5
tp1192
tp1193
Rp1194
s(g1
(g2
g3
Ntp1195
Rp1196
(g74
I01
g90
I00
NNI00
tp1197
bg74
tp1198
g1
(g11
g12
(I0
F1.3
I2
F-542.5
tp1199
tp1200
Rp1201
s(g1
(g2
g3
Ntp1202
Rp1203
(g26
I00
g26
I00
g25
I00
I00
tp1204
bg109
tp1205
g1
(g11
g12
(I0
F4.34
I1
F-166.0
tp1206
tp1207
Rp1208
s(g1
(g2
g3
Ntp1209
Rp1210
(g90
I00
NNg91
I01
I00
tp1211
bg43
tp1212
g1
(g11
g12
(I0
F2.92
I1
F-308.0
tp1213
tp1214
Rp1215
s(g1
(g2
g3
Ntp1216
Rp1217
(g9
I00
NNNNI01
tp1218
bg60
tp1219
g1
(g11
g12
(I1
F11.979999999999999
I3
F-200.66666666666666
tp1220
tp1221
Rp1222
s(g1
(g2
g3
Ntp1223
Rp1224
(g41
I00
NNg90
I01
I00
tp1225
bg41
tp1226
g1
(g11
g12
(I0
F0.57
I1
F-543.0
tp1227
tp1228
Rp1229
s(g1
(g2
g3
Ntp1230
Rp1231
(g74
I00
NNg90
I00
I00
tp1232
bg90
tp1233
g1
(g11
g12
(I0
F6.340000000000001
I4
F-441.5
tp1234
tp1235
Rp1236
s(g1
(g2
g3
Ntp1237
Rp1238
(g9
I00
g6
I00
NNI00
tp1239
bg6
tp1240
g1
(g11
g12
(I2
F75.47
I40
F-415.9750000000001
tp1241
tp1242
Rp1243
s(g1
(g2
g3
Ntp1244
Rp1245
(g41
I01
g90
I01
NNI00
tp1246
bg91
tp1247
g1
(g11
g12
(I0
F1.36
I2
F-596.0
tp1248
tp1249
Rp1250
s(g1
(g2
g3
Ntp1251
Rp1252
(g99
I00
g51
I01
NNI00
tp1253
bg189
tp1254
g1
(g11
g12
(I0
F1.73
I3
F-560.6666666666666
tp1255
tp1256
Rp1257
s(g1
(g2
g3
Ntp1258
Rp1259
(g74
I00
NNg91
I00
I00
tp1260
bg90
tp1261
g1
(g11
g12
(I0
F2.04
I2
F-498.0
tp1262
tp1263
Rp1264
s(g1
(g2
g3
Ntp1265
Rp1266
(g41
I00
NNg74
I01
I00
tp1267
bg91
tp1268
g1
(g11
g12
(I0
F7.3
I3
F-356.66666666666663
tp1269
tp1270
Rp1271
s(g1
(g2
g3
Ntp1272
Rp1273
(g90
I00
NNg91
I00
I00
tp1274
bg90
tp1275
g1
(g11
g12
(I0
F18.77
I15
F-477.66666666666663
tp1276
tp1277
Rp1278
s(g1
(g2
g3
Ntp1279
Rp1280
(g41
I00
g41
I00
NNI00
tp1281
bg74
tp1282
g1
(g11
g12
(I0
F0.12
I2
F-615.0
tp1283
tp1284
Rp1285
s(g1
(g2
g3
Ntp1286
Rp1287
(g9
I00
g6
I00
NNI00
tp1288
bg9
tp1289
g1
(g11
g12
(I13
F293.4300000000001
I130
F-378.9461538461538
tp1290
tp1291
Rp1292
s(g1
(g2
g3
Ntp1293
Rp1294
(g9
I00
NNg9
I00
I00
tp1295
bg6
tp1296
g1
(g11
g12
(I0
F8.739999999999998
I6
F-459.00000000000006
tp1297
tp1298
Rp1299
s(g1
(g2
g3
Ntp1300
Rp1301
(g74
I01
g90
I00
NNI00
tp1302
bg90
tp1303
g1
(g11
g12
(I0
F0.78
I2
F-601.0
tp1304
tp1305
Rp1306
s(g1
(g2
g3
Ntp1307
Rp1308
(g74
I00
NNg91
I00
I00
tp1309
bg91
tp1310
g1
(g11
g12
(I0
F3.44
I2
F-428.0
tp1311
tp1312
Rp1313
s(g1
(g2
g3
Ntp1314
Rp1315
(g82
I00
NNg9
I01
I00
tp1316
bg9
tp1317
g1
(g11
g12
(I0
F6.23
I2
F-288.5
tp1318
tp1319
Rp1320
s(g1
(g2
g3
Ntp1321
Rp1322
(g82
I00
NNg6
I01
I00
tp1323
bg82
tp1324
g1
(g11
g12
(I1
F11.91
I3
F-203.0
tp1325
tp1326
Rp1327
s(g1
(g2
g3
Ntp1328
Rp1329
(g9
I00
NNNNI00
tp1330
bg60
tp1331
g1
(g11
g12
(I0
F34.69
I21
F-439.85714285714283
tp1332
tp1333
Rp1334
s(g1
(g2
g3
Ntp1335
Rp1336
(g6
I00
NNNNI01
tp1337
bg7
tp1338
g1
(g11
g12
(I0
F0.6000000000000001
I4
F-612.0
tp1339
tp1340
Rp1341
s(g1
(g2
g3
Ntp1342
Rp1343
(g90
I00
NNg74
I00
I00
tp1344
bg41
tp1345
g1
(g11
g12
(I0
F2.92
I1
F-308.0
tp1346
tp1347
Rp1348
s(g1
(g2
g3
Ntp1349
Rp1350
(g91
I00
g90
I01
NNI00
tp1351
bg43
tp1352
g1
(g11
g12
(I0
F2.1
I2
F-495.0
tp1353
tp1354
Rp1355
s(g1
(g2
g3
Ntp1356
Rp1357
(g50
I00
g99
I00
NNI00
tp1358
bg99
tp1359
g1
(g11
g12
(I0
F1.5
I1
F-450.0
tp1360
tp1361
Rp1362
s(g1
(g2
g3
Ntp1363
Rp1364
(g180
I00
g107
I00
g107
I00
I00
tp1365
bg180
tp1366
g1
(g11
g12
(I1
F51.980000000000004
I2
F1999.0
tp1367
tp1368
Rp1369
s(g1
(g2
g3
Ntp1370
Rp1371
(g74
I01
g91
I00
NNI00
tp1372
bg43
tp1373
g1
(g11
g12
(I0
F1.6600000000000001
I2
F-517.0
tp1374
tp1375
Rp1376
s(g1
(g2
g3
Ntp1377
Rp1378
(g82
I00
g82
I00
NNI00
tp1379
bg9
tp1380
g1
(g11
g12
(I0
F6.77
I8
F-515.375
tp1381
tp1382
Rp1383
s(g1
(g2
g3
Ntp1384
Rp1385
(g74
I00
NNg91
I00
I00
tp1386
bg43
tp1387
g1
(g11
g12
(I0
F0.64
I2
F-589.0
tp1388
tp1389
Rp1390
s(g1
(g2
g3
Ntp1391
Rp1392
(g25
I01
g26
I00
NNI00
tp1393
bg109
tp1394
g1
(g11
g12
(I0
F4.34
I1
F-166.0
tp1395
tp1396
Rp1397
s(g1
(g2
g3
Ntp1398
Rp1399
(g6
I00
NNNNI00
tp1400
bg82
tp1401
g1
(g11
g12
(I0
F28.589999999999996
I23
F-485.86956521739125
tp1402
tp1403
Rp1404
s(g1
(g2
g3
Ntp1405
Rp1406
(g82
I00
g6
I00
NNI00
tp1407
bg82
tp1408
g1
(g11
g12
(I15
F315.5300000000002
I138
F-374.376811594203
tp1409
tp1410
Rp1411
s(g1
(g2
g3
Ntp1412
Rp1413
(g9
I00
NNg9
I00
I00
tp1414
bg60
tp1415
g1
(g11
g12
(I0
F10.44
I6
F-426.0
tp1416
tp1417
Rp1418
s(g1
(g2
g3
Ntp1419
Rp1420
(g6
I01
NNg6
I01
I00
tp1421
bg9
tp1422
g1
(g11
g12
(I1
F13.44
I2
F58.0
tp1423
tp1424
Rp1425
s(g1
(g2
g3
Ntp1426
Rp1427
(g6
I01
NNNNI00
tp1428
bg82
tp1429
g1
(g11
g12
(I0
F4.65
I7
F-537.5714285714287
tp1430
tp1431
Rp1432
s(g1
(g2
g3
Ntp1433
Rp1434
(g50
I00
NNg50
I00
I00
tp1435
bg50
tp1436
g1
(g11
g12
(I1
F34.32
I2
F1116.0
tp1437
tp1438
Rp1439
s(g1
(g2
g3
Ntp1440
Rp1441
(g41
I00
NNg74
I01
I00
tp1442
bg74
tp1443
g1
(g11
g12
(I0
F3.63
I2
F-418.5
tp1444
tp1445
Rp1446
s(g1
(g2
g3
Ntp1447
Rp1448
(g9
I01
g6
I00
NNI00
tp1449
bg82
tp1450
g1
(g11
g12
(I0
F7.47
I9
F-542.8888888888889
tp1451
tp1452
Rp1453
s(g1
(g2
g3
Ntp1454
Rp1455
(g26
I00
g107
I00
g107
I00
I00
tp1456
bg107
tp1457
g1
(g11
g12
(I0
F17.94
I1
F1194.0
tp1458
tp1459
Rp1460
s(g1
(g2
g3
Ntp1461
Rp1462
(g91
I00
g90
I01
NNI00
tp1463
bg90
tp1464
g1
(g11
g12
(I0
F0.0
I1
F-615.0
tp1465
tp1466
Rp1467
s(g1
(g2
g3
Ntp1468
Rp1469
(g99
I00
g159
I01
NNI01
tp1470
bg99
tp1471
g1
(g11
g12
(I0
F1.09
I1
F-491.0
tp1472
tp1473
Rp1474
s(g1
(g2
g3
Ntp1475
Rp1476
(g26
I00
g26
I00
g26
I00
I00
tp1477
bg26
tp1478
g1
(g11
g12
(I1
F34.04
I1
F2804.0
tp1479
tp1480
Rp1481
s(g1
(g2
g3
Ntp1482
Rp1483
(g82
I00
NNNNI01
tp1484
bg82
tp1485
g1
(g11
g12
(I0
F5.17
I3
F-427.66666666666663
tp1486
tp1487
Rp1488
s(g1
(g2
g3
Ntp1489
Rp1490
(g82
I00
g7
I00
NNI00
tp1491
bg60
tp1492
g1
(g11
g12
(I3
F38.17
I8
F-122.87499999999999
tp1493
tp1494
Rp1495
s(g1
(g2
g3
Ntp1496
Rp1497
(g82
I00
NNg82
I00
I00
tp1498
bg9
tp1499
g1
(g11
g12
(I0
F15.880000000000003
I12
F-469.99999999999994
tp1500
tp1501
Rp1502
s(g1
(g2
g3
Ntp1503
Rp1504
(g90
I01
NNg90
I01
I00
tp1505
bg90
tp1506
g1
(g11
g12
(I0
F0.57
I1
F-543.0
tp1507
tp1508
Rp1509
s(g1
(g2
g3
Ntp1510
Rp1511
(g6
I01
NNNNI01
tp1512
bg7
tp1513
g1
(g11
g12
(I0
F0.28
I2
F-600.0
tp1514
tp1515
Rp1516
s(g1
(g2
g3
Ntp1517
Rp1518
(g26
I00
g180
I00
g180
I00
I00
tp1519
bg26
tp1520
g1
(g11
g12
(I1
F51.980000000000004
I2
F1999.0
tp1521
tp1522
Rp1523
s(g1
(g2
g3
Ntp1524
Rp1525
(g180
I00
g107
I00
g107
I00
I00
tp1526
bg25
tp1527
g1
(g11
g12
(I1
F34.04
I1
F2804.0
tp1528
tp1529
Rp1530
s(g1
(g2
g3
Ntp1531
Rp1532
(g9
I01
g7
I00
NNI00
tp1533
bg7
tp1534
g1
(g11
g12
(I3
F45.72000000000001
I17
F-334.64705882352945
tp1535
tp1536
Rp1537
s(g1
(g2
g3
Ntp1538
Rp1539
(g9
I01
NNg9
I01
I00
tp1540
bg7
tp1541
g1
(g11
g12
(I0
F4.33
I4
F-491.75
tp1542
tp1543
Rp1544
s(g1
(g2
g3
Ntp1545
Rp1546
(g180
I00
g180
I00
g180
I00
I00
tp1547
bg180
tp1548
g1
(g11
g12
(I1
F51.980000000000004
I2
F1999.0
tp1549
tp1550
Rp1551
s(g1
(g2
g3
Ntp1552
Rp1553
(g91
I00
NNg74
I00
I00
tp1554
bg74
tp1555
g1
(g11
g12
(I0
F0.9
I2
F-555.0
tp1556
tp1557
Rp1558
s(g1
(g2
g3
Ntp1559
Rp1560
(g9
I00
NNNNI00
tp1561
bg9
tp1562
g1
(g11
g12
(I11
F240.95
I66
F-241.57575757575762
tp1563
tp1564
Rp1565
s(g1
(g2
g3
Ntp1566
Rp1567
(g180
I01
g180
I01
g180
I01
I00
tp1568
bg107
tp1569
g1
(g11
g12
(I0
F17.94
I1
F1194.0
tp1570
tp1571
Rp1572
s(g1
(g2
g3
Ntp1573
Rp1574
(g25
I00
g25
I00
g26
I00
I00
tp1575
bg109
tp1576
g1
(g11
g12
(I1
F34.04
I1
F2804.0
tp1577
tp1578
Rp1579
s(g1
(g2
g3
Ntp1580
Rp1581
(g99
I01
g159
I00
NNI00
tp1582
bg50
tp1583
g1
(g11
g12
(I0
F1.71
I2
F-514.5
tp1584
tp1585
Rp1586
s(g1
(g2
g3
Ntp1587
Rp1588
(g82
I00
g7
I00
NNI00
tp1589
bg82
tp1590
g1
(g11
g12
(I9
F152.92999999999998
I18
F249.61111111111114
tp1591
tp1592
Rp1593
s(g1
(g2
g3
Ntp1594
Rp1595
(g9
I00
NNg9
I00
I00
tp1596
bg7
tp1597
g1
(g11
g12
(I0
F7.130000000000001
I6
F-485.83333333333337
tp1598
tp1599
Rp1600
s(g1
(g2
g3
Ntp1601
Rp1602
(g9
I00
g7
I01
NNI00
tp1603
bg60
tp1604
g1
(g11
g12
(I0
F1.7599999999999998
I2
F-512.0
tp1605
tp1606
Rp1607
s(g1
(g2
g3
Ntp1608
Rp1609
(g74
I00
NNg90
I00
I00
tp1610
bg74
tp1611
g1
(g11
g12
(I8
F114.26999999999998
I19
F-8.999999999999996
tp1612
tp1613
Rp1614
s(g1
(g2
g3
Ntp1615
Rp1616
(g82
I01
NNg82
I01
I00
tp1617
bg9
tp1618
g1
(g11
g12
(I0
F5.87
I3
F-404.3333333333333
tp1619
tp1620
Rp1621
s(g1
(g2
g3
Ntp1622
Rp1623
(g91
I01
NNg90
I01
I00
tp1624
bg91
tp1625
g1
(g11
g12
(I0
F0.81
I1
F-519.0
tp1626
tp1627
Rp1628
s(g1
(g2
g3
Ntp1629
Rp1630
(g99
I00
NNg50
I00
I00
tp1631
bg99
tp1632
g1
(g11
g12
(I0
F0.28
I1
F-572.0
tp1633
tp1634
Rp1635
s(g1
(g2
g3
Ntp1636
Rp1637
(g25
I00
g26
I00
NNI00
tp1638
bg109
tp1639
g1
(g11
g12
(I1
F56.32000000000001
I3
F1277.3333333333333
tp1640
tp1641
Rp1642
s(g1
(g2
g3
Ntp1643
Rp1644
(g41
I00
g91
I00
NNI00
tp1645
bg91
tp1646
g1
(g11
g12
(I1
F19.86
I9
F-379.3333333333333
tp1647
tp1648
Rp1649
s(g1
(g2
g3
Ntp1650
Rp1651
(g51
I00
NNg50
I00
I00
tp1652
bg99
tp1653
g1
(g11
g12
(I0
F2.27
I1
F-373.0
tp1654
tp1655
Rp1656
s(g1
(g2
g3
Ntp1657
Rp1658
(g82
I00
g6
I01
NNI00
tp1659
bg82
tp1660
g1
(g11
g12
(I3
F50.89000000000001
I20
F-345.55000000000007
tp1661
tp1662
Rp1663
s(g1
(g2
g3
Ntp1664
Rp1665
(g41
I00
g41
I00
NNI00
tp1666
bg41
tp1667
g1
(g11
g12
(I1
F65.81
I14
F-137.28571428571422
tp1668
tp1669
Rp1670
s(g1
(g2
g3
Ntp1671
Rp1672
(g82
I00
g7
I01
NNI00
tp1673
bg82
tp1674
g1
(g11
g12
(I5
F55.849999999999994
I7
F197.85714285714286
tp1675
tp1676
Rp1677
s(g1
(g2
g3
Ntp1678
Rp1679
(g41
I00
NNg90
I00
I00
tp1680
bg41
tp1681
g1
(g11
g12
(I8
F114.05999999999999
I17
F68.47058823529412
tp1682
tp1683
Rp1684
s(g1
(g2
g3
Ntp1685
Rp1686
(g25
I00
g25
I00
g180
I00
I00
tp1687
bg26
tp1688
g1
(g11
g12
(I1
F34.04
I1
F2804.0
tp1689
tp1690
Rp1691
s(g1
(g2
g3
Ntp1692
Rp1693
(g6
I00
g7
I00
NNI00
tp1694
bg7
tp1695
g1
(g11
g12
(I0
F5.45
I7
F-522.1428571428571
tp1696
tp1697
Rp1698
s(g1
(g2
g3
Ntp1699
Rp1700
(g6
I00
g7
I00
NNI00
tp1701
bg6
tp1702
g1
(g11
g12
(I14
F233.74
I47
F-102.68085106382983
tp1703
tp1704
Rp1705
s(g1
(g2
g3
Ntp1706
Rp1707
(g74
I00
NNNNI01
tp1708
bg91
tp1709
g1
(g11
g12
(I0
F0.32
I1
F-568.0
tp1710
tp1711
Rp1712
s(g1
(g2
g3
Ntp1713
Rp1714
(g41
I00
NNg90
I00
I00
tp1715
bg74
tp1716
g1
(g11
g12
(I0
F0.57
I1
F-543.0
tp1717
tp1718
Rp1719
s(g1
(g2
g3
Ntp1720
Rp1721
(g41
I00
NNg90
I00
I00
tp1722
bg90
tp1723
g1
(g11
g12
(I0
F1.3199999999999998
I2
F-534.0
tp1724
tp1725
Rp1726
s(g1
(g2
g3
Ntp1727
Rp1728
(g9
I01
NNNNI00
tp1729
bg60
tp1730
g1
(g11
g12
(I0
F7.98
I6
F-470.50000000000006
tp1731
tp1732
Rp1733
s(g1
(g2
g3
Ntp1734
Rp1735
(g74
I00
g91
I01
NNI00
tp1736
bg74
tp1737
g1
(g11
g12
(I0
F2.05
I4
F-562.5
tp1738
tp1739
Rp1740
s(g1
(g2
g3
Ntp1741
Rp1742
(g6
I01
g6
I01
NNI01
tp1743
bg60
tp1744
g1
(g11
g12
(I0
F0.84
I1
F-516.0
tp1745
tp1746
Rp1747
s(g1
(g2
g3
Ntp1748
Rp1749
(g25
I00
g107
I00
NNI00
tp1750
bg25
tp1751
g1
(g11
g12
(I1
F51.980000000000004
I2
F1999.0
tp1752
tp1753
Rp1754
s(g1
(g2
g3
Ntp1755
Rp1756
(g6
I00
NNg7
I01
I00
tp1757
bg60
tp1758
g1
(g11
g12
(I0
F3.02
I1
F-298.0
tp1759
tp1760
Rp1761
s(g1
(g2
g3
Ntp1762
Rp1763
(g25
I00
g26
I00
NNI00
tp1764
bg26
tp1765
g1
(g11
g12
(I1
F56.32000000000001
I3
F1277.3333333333333
tp1766
tp1767
Rp1768
s(g1
(g2
g3
Ntp1769
Rp1770
(g82
I00
g6
I01
NNI00
tp1771
bg9
tp1772
g1
(g11
g12
(I1
F15.480000000000002
I8
F-418.37500000000006
tp1773
tp1774
Rp1775
s(g1
(g2
g3
Ntp1776
Rp1777
(g50
I01
g159
I00
NNI00
tp1778
bg50
tp1779
g1
(g11
g12
(I0
F2.27
I1
F-373.0
tp1780
tp1781
Rp1782
s(g1
(g2
g3
Ntp1783
Rp1784
(g6
I00
NNg82
I01
I00
tp1785
bg9
tp1786
g1
(g11
g12
(I1
F13.84
I2
F92.0
tp1787
tp1788
Rp1789
s(g1
(g2
g3
Ntp1790
Rp1791
(g74
I00
g91
I00
NNI00
tp1792
bg91
tp1793
g1
(g11
g12
(I1
F20.740000000000002
I13
F-444.6923076923076
tp1794
tp1795
Rp1796
s(g1
(g2
g3
Ntp1797
Rp1798
(g74
I00
g91
I01
NNI00
tp1799
bg91
tp1800
g1
(g11
g12
(I0
F2.52
I3
F-526.0
tp1801
tp1802
Rp1803
s(g1
(g2
g3
Ntp1804
Rp1805
(g74
I00
NNg41
I00
I00
tp1806
bg91
tp1807
g1
(g11
g12
(I0
F0.0
I1
F-665.0
tp1808
tp1809
Rp1810
s(g1
(g2
g3
Ntp1811
Rp1812
(g41
I00
g90
I01
NNI00
tp1813
bg43
tp1814
g1
(g11
g12
(I0
F3.1400000000000006
I4
F-541.5
tp1815
tp1816
Rp1817
s(g1
(g2
g3
Ntp1818
Rp1819
(g6
I01
g7
I00
NNI00
tp1820
bg60
tp1821
g1
(g11
g12
(I0
F0.91
I1
F-509.0
tp1822
tp1823
Rp1824
s(g1
(g2
g3
Ntp1825
Rp1826
(g91
I00
g91
I00
NNI00
tp1827
bg74
tp1828
g1
(g11
g12
(I0
F1.4200000000000002
I4
F-697.25
tp1829
tp1830
Rp1831
s(g1
(g2
g3
Ntp1832
Rp1833
(g82
I00
NNg6
I00
I01
tp1834
bg82
tp1835
g1
(g11
g12
(I1
F10.94
I1
F494.0
tp1836
tp1837
Rp1838
s(g1
(g2
g3
Ntp1839
Rp1840
(g26
I00
g26
I00
g26
I00
I00
tp1841
bg109
tp1842
g1
(g11
g12
(I1
F51.980000000000004
I2
F1999.0
tp1843
tp1844
Rp1845
s(g1
(g2
g3
Ntp1846
Rp1847
(g41
I00
g90
I01
NNI00
tp1848
bg91
tp1849
g1
(g11
g12
(I0
F2.1100000000000003
I4
F-605.5
tp1850
tp1851
Rp1852
s(g1
(g2
g3
Ntp1853
Rp1854
(g25
I00
g25
I00
g25
I00
I00
tp1855
bg109
tp1856
g1
(g11
g12
(I1
F51.980000000000004
I2
F1999.0
tp1857
tp1858
Rp1859
s(g1
(g2
g3
Ntp1860
Rp1861
(g90
I00
NNg74
I00
I00
tp1862
bg90
tp1863
g1
(g11
g12
(I0
F2.7699999999999996
I2
F-461.5
tp1864
tp1865
Rp1866
s(g1
(g2
g3
Ntp1867
Rp1868
(g9
I01
NNg9
I01
I00
tp1869
bg6
tp1870
g1
(g11
g12
(I0
F10.44
I5
F-391.20000000000005
tp1871
tp1872
Rp1873
s(g1
(g2
g3
Ntp1874
Rp1875
(g41
I01
g91
I00
NNI00
tp1876
bg91
tp1877
g1
(g11
g12
(I0
F0.92
I1
F-508.0
tp1878
tp1879
Rp1880
s(g1
(g2
g3
Ntp1881
Rp1882
(g9
I00
g6
I00
NNI00
tp1883
bg7
tp1884
g1
(g11
g12
(I0
F20.769999999999996
I34
F-552.5000000000001
tp1885
tp1886
Rp1887
s(g1
(g2
g3
Ntp1888
Rp1889
(g90
I00
NNg74
I01
I00
tp1890
bg43
tp1891
g1
(g11
g12
(I0
F0.76
I1
F-524.0
tp1892
tp1893
Rp1894
s(g1
(g2
g3
Ntp1895
Rp1896
(g51
I01
g99
I01
NNI00
tp1897
bg189
tp1898
g1
(g11
g12
(I0
F1.12
I1
F-488.0
tp1899
tp1900
Rp1901
s(g1
(g2
g3
Ntp1902
Rp1903
(g51
I01
g159
I01
NNI01
tp1904
bg51
tp1905
g1
(g11
g12
(I0
F1.09
I1
F-491.0
tp1906
tp1907
Rp1908
s(g1
(g2
g3
Ntp1909
Rp1910
(g74
I01
g91
I00
NNI00
tp1911
bg91
tp1912
g1
(g11
g12
(I0
F1.15
I2
F-542.5
tp1913
tp1914
Rp1915
s(g1
(g2
g3
Ntp1916
Rp1917
(g6
I01
NNNNI01
tp1918
bg6
tp1919
g1
(g11
g12
(I0
F3.4499999999999997
I2
F-427.5
tp1920
tp1921
Rp1922
s(g1
(g2
g3
Ntp1923
Rp1924
(g9
I00
g6
I00
NNI00
tp1925
bg82
tp1926
g1
(g11
g12
(I1
F38.90000000000001
I37
F-499.45945945945954
tp1927
tp1928
Rp1929
s(g1
(g2
g3
Ntp1930
Rp1931
(g159
I01
NNg159
I01
I00
tp1932
bg50
tp1933
g1
(g11
g12
(I0
F0.9
I1
F-510.0
tp1934
tp1935
Rp1936
s(g1
(g2
g3
Ntp1937
Rp1938
(g9
I00
g6
I00
NNI00
tp1939
bg60
tp1940
g1
(g11
g12
(I2
F52.760000000000005
I40
F-475.67500000000007
tp1941
tp1942
Rp1943
s(g1
(g2
g3
Ntp1944
Rp1945
(g9
I00
g7
I01
NNI00
tp1946
bg9
tp1947
g1
(g11
g12
(I1
F13.69
I4
F-257.75
tp1948
tp1949
Rp1950
s(g1
(g2
g3
Ntp1951
Rp1952
(g6
I01
NNNNI00
tp1953
bg60
tp1954
g1
(g11
g12
(I0
F8.719999999999999
I7
F-475.42857142857144
tp1955
tp1956
Rp1957
s(g1
(g2
g3
Ntp1958
Rp1959
(g50
I00
g51
I01
NNI00
tp1960
bg50
tp1961
g1
(g11
g12
(I0
F0.36
I1
F-564.0
tp1962
tp1963
Rp1964
s(g1
(g2
g3
Ntp1965
Rp1966
(g91
I00
NNg90
I00
I00
tp1967
bg43
tp1968
g1
(g11
g12
(I0
F0.0
I1
F-642.0
tp1969
tp1970
Rp1971
s(g1
(g2
g3
Ntp1972
Rp1973
(g51
I01
g159
I01
NNI00
tp1974
bg159
tp1975
g1
(g11
g12
(I0
F0.79
I1
F-521.0
tp1976
tp1977
Rp1978
s(g1
(g2
g3
Ntp1979
Rp1980
(g51
I00
g159
I01
NNI00
tp1981
bg50
tp1982
g1
(g11
g12
(I0
F0.81
I1
F-519.0
tp1983
tp1984
Rp1985
s(g1
(g2
g3
Ntp1986
Rp1987
(g82
I01
NNNNI00
tp1988
bg60
tp1989
g1
(g11
g12
(I2
F46.96
I12
F-212.16666666666669
tp1990
tp1991
Rp1992
s(g1
(g2
g3
Ntp1993
Rp1994
(g99
I01
g51
I01
NNI00
tp1995
bg51
tp1996
g1
(g11
g12
(I0
F0.7
I1
F-530.0
tp1997
tp1998
Rp1999
s(g1
(g2
g3
Ntp2000
Rp2001
(g9
I01
g6
I00
NNI00
tp2002
bg7
tp2003
g1
(g11
g12
(I1
F17.2
I11
F-443.6363636363636
tp2004
tp2005
Rp2006
s(g1
(g2
g3
Ntp2007
Rp2008
(g41
I01
g41
I01
NNI00
tp2009
bg91
tp2010
g1
(g11
g12
(I0
F0.12
I1
F-588.0
tp2011
tp2012
Rp2013
s(g1
(g2
g3
Ntp2014
Rp2015
(g6
I00
NNNNI01
tp2016
bg60
tp2017
g1
(g11
g12
(I0
F7.56
I5
F-461.80000000000007
tp2018
tp2019
Rp2020
s(g1
(g2
g3
Ntp2021
Rp2022
(g107
I00
g180
I00
g180
I00
I00
tp2023
bg109
tp2024
g1
(g11
g12
(I1
F51.980000000000004
I2
F1999.0
tp2025
tp2026
Rp2027
s(g1
(g2
g3
Ntp2028
Rp2029
(g99
I00
g159
I00
NNI01
tp2030
bg159
tp2031
g1
(g11
g12
(I0
F0.54
I1
F-546.0
tp2032
tp2033
Rp2034
s(g1
(g2
g3
Ntp2035
Rp2036
(g9
I01
g6
I01
NNI00
tp2037
bg9
tp2038
g1
(g11
g12
(I1
F12.58
I3
F-180.66666666666666
tp2039
tp2040
Rp2041
s(g1
(g2
g3
Ntp2042
Rp2043
(g82
I01
NNg82
I01
I00
tp2044
bg7
tp2045
g1
(g11
g12
(I0
F4.46
I2
F-377.0
tp2046
tp2047
Rp2048
s(g1
(g2
g3
Ntp2049
Rp2050
(g82
I00
NNg82
I00
I00
tp2051
bg7
tp2052
g1
(g11
g12
(I0
F15.830000000000002
I13
F-488.7692307692308
tp2053
tp2054
Rp2055
s(g1
(g2
g3
Ntp2056
Rp2057
(g82
I00
NNNNI00
tp2058
bg6
tp2059
g1
(g11
g12
(I1
F49.91000000000002
I32
F-452.68749999999994
tp2060
tp2061
Rp2062
s(g1
(g2
g3
Ntp2063
Rp2064
(g50
I00
g50
I00
NNI00
tp2065
bg159
tp2066
g1
(g11
g12
(I0
F2.3
I2
F-485.0
tp2067
tp2068
Rp2069
s(g1
(g2
g3
Ntp2070
Rp2071
(g82
I01
g82
I01
NNI00
tp2072
bg9
tp2073
g1
(g11
g12
(I0
F2.8
I3
F-506.66666666666663
tp2074
tp2075
Rp2076
s(g1
(g2
g3
Ntp2077
Rp2078
(g25
I00
g26
I00
g26
I00
I00
tp2079
bg25
tp2080
g1
(g11
g12
(I1
F38.379999999999995
I2
F1319.0
tp2081
tp2082
Rp2083
s(g1
(g2
g3
Ntp2084
Rp2085
(g9
I00
NNNNI01
tp2086
bg9
tp2087
g1
(g11
g12
(I0
F5.45
I4
F-463.75
tp2088
tp2089
Rp2090
s(g1
(g2
g3
Ntp2091
Rp2092
(g159
I01
g159
I01
NNI01
tp2093
bg99
tp2094
g1
(g11
g12
(I0
F1.09
I1
F-491.0
tp2095
tp2096
Rp2097
s(g1
(g2
g3
Ntp2098
Rp2099
(g9
I01
g82
I01
NNI00
tp2100
bg9
tp2101
g1
(g11
g12
(I0
F0.9
I1
F-510.0
tp2102
tp2103
Rp2104
s(g1
(g2
g3
Ntp2105
Rp2106
(g41
I00
g90
I01
NNI00
tp2107
bg90
tp2108
g1
(g11
g12
(I0
F2.6399999999999997
I3
F-512.0
tp2109
tp2110
Rp2111
s(g1
(g2
g3
Ntp2112
Rp2113
(g90
I00
NNg41
I00
I00
tp2114
bg41
tp2115
g1
(g11
g12
(I0
F0.0
I1
F-680.0
tp2116
tp2117
Rp2118
s(g1
(g2
g3
Ntp2119
Rp2120
(g41
I00
NNg90
I00
I00
tp2121
bg91
tp2122
g1
(g11
g12
(I0
F2.6999999999999997
I2
F-465.0
tp2123
tp2124
Rp2125
s(g1
(g2
g3
Ntp2126
Rp2127
(g50
I01
g159
I00
NNI00
tp2128
bg99
tp2129
g1
(g11
g12
(I0
F1.18
I1
F-482.0
tp2130
tp2131
Rp2132
s(g1
(g2
g3
Ntp2133
Rp2134
(g180
I00
g180
I00
g180
I00
I00
tp2135
bg107
tp2136
g1
(g11
g12
(I1
F34.04
I1
F2804.0
tp2137
tp2138
Rp2139
s(g1
(g2
g3
Ntp2140
Rp2141
(g82
I01
NNg82
I01
I00
tp2142
bg60
tp2143
g1
(g11
g12
(I4
F57.24000000000001
I8
F115.50000000000003
tp2144
tp2145
Rp2146
s(g1
(g2
g3
Ntp2147
Rp2148
(g91
I01
g90
I01
NNI00
tp2149
bg43
tp2150
g1
(g11
g12
(I0
F0.0
I1
F-615.0
tp2151
tp2152
Rp2153
s(g1
(g2
g3
Ntp2154
Rp2155
(g91
I00
g90
I01
NNI00
tp2156
bg74
tp2157
g1
(g11
g12
(I0
F0.79
I1
F-521.0
tp2158
tp2159
Rp2160
s(g1
(g2
g3
Ntp2161
Rp2162
(g6
I00
NNNNI01
tp2163
bg6
tp2164
g1
(g11
g12
(I0
F8.78
I11
F-548.3636363636364
tp2165
tp2166
Rp2167
s(g1
(g2
g3
Ntp2168
Rp2169
(g9
I01
g6
I00
NNI00
tp2170
bg6
tp2171
g1
(g11
g12
(I0
F11.540000000000001
I9
F-477.8888888888889
tp2172
tp2173
Rp2174
s(g1
(g2
g3
Ntp2175
Rp2176
(g82
I00
g6
I01
NNI00
tp2177
bg7
tp2178
g1
(g11
g12
(I2
F28.709999999999997
I10
F-319.40000000000003
tp2179
tp2180
Rp2181
s(g1
(g2
g3
Ntp2182
Rp2183
(g41
I00
NNg90
I01
I00
tp2184
bg91
tp2185
g1
(g11
g12
(I0
F2.08
I1
F-392.0
tp2186
tp2187
Rp2188
s(g1
(g2
g3
Ntp2189
Rp2190
(g82
I00
g6
I00
NNI00
tp2191
bg7
tp2192
g1
(g11
g12
(I0
F42.61000000000001
I47
F-512.2765957446807
tp2193
tp2194
Rp2195
s(g1
(g2
g3
Ntp2196
Rp2197
(g82
I00
NNg6
I00
I00
tp2198
bg60
tp2199
g1
(g11
g12
(I2
F29.099999999999998
I8
F-236.25000000000003
tp2200
tp2201
Rp2202
s(g1
(g2
g3
Ntp2203
Rp2204
(g41
I01
g90
I00
NNI00
tp2205
bg91
tp2206
g1
(g11
g12
(I0
F3.4400000000000004
I2
F-428.0
tp2207
tp2208
Rp2209
s(g1
(g2
g3
Ntp2210
Rp2211
(g50
I01
g159
I01
NNI00
tp2212
bg50
tp2213
g1
(g11
g12
(I0
F0.56
I1
F-544.0
tp2214
tp2215
Rp2216
s(g1
(g2
g3
Ntp2217
Rp2218
(g74
I00
g91
I00
NNI00
tp2219
bg41
tp2220
g1
(g11
g12
(I1
F16.78
I12
F-467.25
tp2221
tp2222
Rp2223
s(g1
(g2
g3
Ntp2224
Rp2225
(g74
I00
g91
I00
NNI00
tp2226
bg43
tp2227
g1
(g11
g12
(I0
F7.4
I11
F-559.5454545454547
tp2228
tp2229
Rp2230
s(g1
(g2
g3
Ntp2231
Rp2232
(g90
I00
g90
I00
NNI01
tp2233
bg74
tp2234
g1
(g11
g12
(I0
F0.92
I2
F-554.0
tp2235
tp2236
Rp2237
s(g1
(g2
g3
Ntp2238
Rp2239
(g25
I01
g25
I01
g25
I01
I00
tp2240
bg26
tp2241
g1
(g11
g12
(I0
F17.94
I1
F1194.0
tp2242
tp2243
Rp2244
s(g1
(g2
g3
Ntp2245
Rp2246
(g159
I00
NNg159
I00
I01
tp2247
bg189
tp2248
g1
(g11
g12
(I0
F0.47
I1
F-553.0
tp2249
tp2250
Rp2251
s(g1
(g2
g3
Ntp2252
Rp2253
(g50
I01
NNg99
I01
I00
tp2254
bg51
tp2255
g1
(g11
g12
(I0
F0.9
I1
F-510.0
tp2256
tp2257
Rp2258
s(g1
(g2
g3
Ntp2259
Rp2260
(g90
I00
NNg91
I00
I00
tp2261
bg41
tp2262
g1
(g11
g12
(I0
F4.44
I4
F-489.0
tp2263
tp2264
Rp2265
s(g1
(g2
g3
Ntp2266
Rp2267
(g41
I00
g41
I00
NNI00
tp2268
bg91
tp2269
g1
(g11
g12
(I0
F8.14
I8
F-498.25
tp2270
tp2271
Rp2272
s(g1
(g2
g3
Ntp2273
Rp2274
(g6
I01
g6
I01
NNI00
tp2275
bg82
tp2276
g1
(g11
g12
(I1
F40.99000000000001
I41
F-519.0975609756099
tp2277
tp2278
Rp2279
s(g1
(g2
g3
Ntp2280
Rp2281
(g74
I00
NNg91
I00
I00
tp2282
bg41
tp2283
g1
(g11
g12
(I0
F1.71
I2
F-514.5
tp2284
tp2285
Rp2286
s(g1
(g2
g3
Ntp2287
Rp2288
(g74
I00
NNg90
I00
I00
tp2289
bg41
tp2290
g1
(g11
g12
(I0
F3.3099999999999996
I4
F-517.25
tp2291
tp2292
Rp2293
s(g1
(g2
g3
Ntp2294
Rp2295
(g107
I00
g107
I00
g180
I00
I00
tp2296
bg107
tp2297
g1
(g11
g12
(I0
F22.28
I2
F514.0
tp2298
tp2299
Rp2300
s(g1
(g2
g3
Ntp2301
Rp2302
(g41
I00
NNNNI00
tp2303
bg74
tp2304
g1
(g11
g12
(I0
F25.980000000000004
I22
F-490.2272727272727
tp2305
tp2306
Rp2307
s(g1
(g2
g3
Ntp2308
Rp2309
(g9
I01
NNNNI00
tp2310
bg6
tp2311
g1
(g11
g12
(I0
F9.709999999999999
I5
F-410.00000000000006
tp2312
tp2313
Rp2314
s(g1
(g2
g3
Ntp2315
Rp2316
(g41
I00
g90
I00
NNI00
tp2317
bg74
tp2318
g1
(g11
g12
(I1
F55.43999999999999
I58
F-516.6724137931034
tp2319
tp2320
Rp2321
s(g1
(g2
g3
Ntp2322
Rp2323
(g90
I01
g90
I01
NNI01
tp2324
bg90
tp2325
g1
(g11
g12
(I0
F0.89
I1
F-511.0
tp2326
tp2327
Rp2328
s(g1
(g2
g3
Ntp2329
Rp2330
(g82
I01
NNg82
I01
I00
tp2331
bg82
tp2332
g1
(g11
g12
(I0
F5.43
I2
F-328.5
tp2333
tp2334
Rp2335
s(g1
(g2
g3
Ntp2336
Rp2337
(g91
I00
NNg41
I00
I00
tp2338
bg91
tp2339
g1
(g11
g12
(I1
F34.32
I3
F498.3333333333333
tp2340
tp2341
Rp2342
s(g1
(g2
g3
Ntp2343
Rp2344
(g9
I00
g7
I01
NNI00
tp2345
bg7
tp2346
g1
(g11
g12
(I0
F1.6
I2
F-520.0
tp2347
tp2348
Rp2349
s(g1
(g2
g3
Ntp2350
Rp2351
(g9
I00
g7
I00
NNI00
tp2352
bg7
tp2353
g1
(g11
g12
(I1
F23.240000000000002
I20
F-490.0999999999999
tp2354
tp2355
Rp2356
s(g1
(g2
g3
Ntp2357
Rp2358
(g82
I00
NNg82
I00
I00
tp2359
bg82
tp2360
g1
(g11
g12
(I10
F191.14
I41
F-138.85365853658533
tp2361
tp2362
Rp2363
s(g1
(g2
g3
Ntp2364
Rp2365
(g91
I00
NNg90
I00
I00
tp2366
bg74
tp2367
g1
(g11
g12
(I0
F0.0
I1
F-680.0
tp2368
tp2369
Rp2370
s(g1
(g2
g3
Ntp2371
Rp2372
(g82
I00
g6
I01
NNI00
tp2373
bg60
tp2374
g1
(g11
g12
(I0
F5.859999999999999
I7
F-516.2857142857142
tp2375
tp2376
Rp2377
s(g1
(g2
g3
Ntp2378
Rp2379
(g107
I00
g107
I00
g180
I00
I00
tp2380
bg109
tp2381
g1
(g11
g12
(I0
F22.28
I2
F514.0
tp2382
tp2383
Rp2384
s(g1
(g2
g3
Ntp2385
Rp2386
(g82
I00
NNNNI00
tp2387
bg9
tp2388
g1
(g11
g12
(I2
F71.81000000000002
I34
F-394.8235294117647
tp2389
tp2390
Rp2391
s(g1
(g2
g3
Ntp2392
Rp2393
(g41
I00
g90
I00
NNI00
tp2394
bg91
tp2395
g1
(g11
g12
(I0
F44.31000000000001
I60
F-535.7666666666663
tp2396
tp2397
Rp2398
s(g1
(g2
g3
Ntp2399
Rp2400
(g41
I00
NNg74
I01
I00
tp2401
bg43
tp2402
g1
(g11
g12
(I0
F4.06
I3
F-464.66666666666663
tp2403
tp2404
Rp2405
s(g1
(g2
g3
Ntp2406
Rp2407
(g82
I00
NNg6
I01
I00
tp2408
bg60
tp2409
g1
(g11
g12
(I3
F34.53
I4
F263.25
tp2410
tp2411
Rp2412
s(g1
(g2
g3
Ntp2413
Rp2414
(g9
I00
NNNNI00
tp2415
bg6
tp2416
g1
(g11
g12
(I0
F25.370000000000005
I21
F-485.4285714285714
tp2417
tp2418
Rp2419
s(g1
(g2
g3
Ntp2420
Rp2421
(g74
I00
g90
I00
NNI01
tp2422
bg91
tp2423
g1
(g11
g12
(I0
F0.12
I1
F-588.0
tp2424
tp2425
Rp2426
s(g1
(g2
g3
Ntp2427
Rp2428
(g41
I01
NNNNI00
tp2429
bg91
tp2430
g1
(g11
g12
(I0
F2.7399999999999998
I3
F-535.3333333333333
tp2431
tp2432
Rp2433
s(g1
(g2
g3
Ntp2434
Rp2435
(g50
I00
g159
I01
NNI00
tp2436
bg99
tp2437
g1
(g11
g12
(I0
F1.78
I2
F-511.0
tp2438
tp2439
Rp2440
s(g1
(g2
g3
Ntp2441
Rp2442
(g9
I01
NNg9
I01
I00
tp2443
bg60
tp2444
g1
(g11
g12
(I0
F6.88
I5
F-462.4
tp2445
tp2446
Rp2447
s(g1
(g2
g3
Ntp2448
Rp2449
(g6
I00
NNg6
I00
I00
tp2450
bg7
tp2451
g1
(g11
g12
(I0
F8.05
I9
F-517.3333333333333
tp2452
tp2453
Rp2454
s(g1
(g2
g3
Ntp2455
Rp2456
(g159
I01
NNg159
I01
I00
tp2457
bg99
tp2458
g1
(g11
g12
(I0
F2.27
I1
F-373.0
tp2459
tp2460
Rp2461
s(g1
(g2
g3
Ntp2462
Rp2463
(g6
I00
g6
I00
NNI01
tp2464
bg6
tp2465
g1
(g11
g12
(I0
F4.35
I5
F-513.0
tp2466
tp2467
Rp2468
s(g1
(g2
g3
Ntp2469
Rp2470
(g107
I00
g107
I00
g107
I00
I00
tp2471
bg107
tp2472
g1
(g11
g12
(I1
F51.980000000000004
I2
F1999.0
tp2473
tp2474
Rp2475
s(g1
(g2
g3
Ntp2476
Rp2477
(g82
I01
g82
I01
NNI00
tp2478
bg7
tp2479
g1
(g11
g12
(I0
F2.63
I3
F-512.3333333333334
tp2480
tp2481
Rp2482
s(g1
(g2
g3
Ntp2483
Rp2484
(g6
I01
NNNNI01
tp2485
bg60
tp2486
g1
(g11
g12
(I0
F4.85
I3
F-460.0
tp2487
tp2488
Rp2489
s(g1
(g2
g3
Ntp2490
Rp2491
(g107
I00
g180
I00
g107
I00
I00
tp2492
bg107
tp2493
g1
(g11
g12
(I0
F17.94
I1
F1194.0
tp2494
tp2495
Rp2496
s(g1
(g2
g3
Ntp2497
Rp2498
(g6
I00
g6
I00
NNI01
tp2499
bg9
tp2500
g1
(g11
g12
(I0
F2.85
I4
F-528.75
tp2501
tp2502
Rp2503
s(g1
(g2
g3
Ntp2504
Rp2505
(g25
I00
g107
I00
NNI00
tp2506
bg26
tp2507
g1
(g11
g12
(I1
F51.980000000000004
I2
F1999.0
tp2508
tp2509
Rp2510
s(g1
(g2
g3
Ntp2511
Rp2512
(g6
I01
NNNNI00
tp2513
bg6
tp2514
g1
(g11
g12
(I0
F8.91
I6
F-451.5
tp2515
tp2516
Rp2517
s(g1
(g2
g3
Ntp2518
Rp2519
(g41
I00
NNg74
I00
I00
tp2520
bg91
tp2521
g1
(g11
g12
(I0
F7.799999999999999
I12
F-541.8333333333333
tp2522
tp2523
Rp2524
s(g1
(g2
g3
Ntp2525
Rp2526
(g50
I01
g51
I00
NNI00
tp2527
bg189
tp2528
g1
(g11
g12
(I0
F0.87
I1
F-513.0
tp2529
tp2530
Rp2531
s(g1
(g2
g3
Ntp2532
Rp2533
(g82
I01
g7
I00
NNI00
tp2534
bg82
tp2535
g1
(g11
g12
(I0
F3.06
I3
F-498.0
tp2536
tp2537
Rp2538
s(g1
(g2
g3
Ntp2539
Rp2540
(g90
I00
NNg90
I00
I01
tp2541
bg91
tp2542
g1
(g11
g12
(I0
F0.0
I1
F-680.0
tp2543
tp2544
Rp2545
s(g1
(g2
g3
Ntp2546
Rp2547
(g9
I00
g6
I01
NNI00
tp2548
bg9
tp2549
g1
(g11
g12
(I2
F27.490000000000002
I7
F-209.42857142857142
tp2550
tp2551
Rp2552
s(g1
(g2
g3
Ntp2553
Rp2554
(g25
I00
g25
I00
g25
I00
I00
tp2555
bg26
tp2556
g1
(g11
g12
(I1
F51.980000000000004
I2
F1999.0
tp2557
tp2558
Rp2559
s(g1
(g2
g3
Ntp2560
Rp2561
(g50
I00
NNg50
I00
I00
tp2562
bg51
tp2563
g1
(g11
g12
(I1
F34.32
I2
F1116.0
tp2564
tp2565
Rp2566
s(g1
(g2
g3
Ntp2567
Rp2568
(g9
I01
NNg9
I01
I00
tp2569
bg9
tp2570
g1
(g11
g12
(I5
F82.03999999999999
I12
F83.66666666666664
tp2571
tp2572
Rp2573
s(g1
(g2
g3
Ntp2574
Rp2575
(g82
I01
g7
I00
NNI00
tp2576
bg9
tp2577
g1
(g11
g12
(I0
F0.59
I1
F-541.0
tp2578
tp2579
Rp2580
s(g1
(g2
g3
Ntp2581
Rp2582
(g74
I00
NNg90
I01
I00
tp2583
bg91
tp2584
g1
(g11
g12
(I0
F2.38
I1
F-362.0
tp2585
tp2586
Rp2587
s(g1
(g2
g3
Ntp2588
Rp2589
(g82
I01
g7
I01
NNI00
tp2590
bg82
tp2591
g1
(g11
g12
(I1
F10.71
I1
F471.0
tp2592
tp2593
Rp2594
s(g1
(g2
g3
Ntp2595
Rp2596
(g50
I00
g51
I01
NNI00
tp2597
bg99
tp2598
g1
(g11
g12
(I1
F10.969999999999999
I2
F-51.5
tp2599
tp2600
Rp2601
s(g1
(g2
g3
Ntp2602
Rp2603
(g50
I00
g99
I00
NNI00
tp2604
bg50
tp2605
g1
(g11
g12
(I1
F54.28
I4
F757.0
tp2606
tp2607
Rp2608
s(g1
(g2
g3
Ntp2609
Rp2610
(g41
I00
NNg74
I00
I00
tp2611
bg74
tp2612
g1
(g11
g12
(I0
F17.2
I12
F-462.08333333333326
tp2613
tp2614
Rp2615
s(g1
(g2
g3
Ntp2616
Rp2617
(g9
I00
g7
I00
NNI00
tp2618
bg60
tp2619
g1
(g11
g12
(I1
F26.349999999999998
I20
F-468.2500000000001
tp2620
tp2621
Rp2622
s(g1
(g2
g3
Ntp2623
Rp2624
(g41
I00
g91
I00
NNI00
tp2625
bg43
tp2626
g1
(g11
g12
(I0
F5.8
I8
F-538.125
tp2627
tp2628
Rp2629
s(g1
(g2
g3
Ntp2630
Rp2631
(g6
I00
g6
I00
NNI01
tp2632
bg60
tp2633
g1
(g11
g12
(I0
F2.46
I3
F-518.0
tp2634
tp2635
Rp2636
s(g1
(g2
g3
Ntp2637
Rp2638
(g6
I00
g7
I01
NNI00
tp2639
bg82
tp2640
g1
(g11
g12
(I0
F2.33
I2
F-483.5
tp2641
tp2642
Rp2643
s(g1
(g2
g3
Ntp2644
Rp2645
(g50
I00
g99
I00
NNI00
tp2646
bg189
tp2647
g1
(g11
g12
(I0
F0.8
I1
F-520.0
tp2648
tp2649
Rp2650
s(g1
(g2
g3
Ntp2651
Rp2652
(g82
I00
g7
I00
NNI00
tp2653
bg6
tp2654
g1
(g11
g12
(I1
F12.329999999999998
I5
F-353.4
tp2655
tp2656
Rp2657
s(g1
(g2
g3
Ntp2658
Rp2659
(g82
I01
g82
I01
NNI00
tp2660
bg82
tp2661
g1
(g11
g12
(I0
F4.12
I4
F-497.0
tp2662
tp2663
Rp2664
s(g1
(g2
g3
Ntp2665
Rp2666
(g51
I00
g159
I01
NNI01
tp2667
bg51
tp2668
g1
(g11
g12
(I1
F9.94
I1
F394.0
tp2669
tp2670
Rp2671
s(g1
(g2
g3
Ntp2672
Rp2673
(g6
I00
g7
I01
NNI00
tp2674
bg60
tp2675
g1
(g11
g12
(I0
F1.7999999999999998
I2
F-510.0
tp2676
tp2677
Rp2678
s(g1
(g2
g3
Ntp2679
Rp2680
(g9
I00
NNg82
I01
I00
tp2681
bg60
tp2682
g1
(g11
g12
(I1
F10.94
I1
F494.0
tp2683
tp2684
Rp2685
s(g1
(g2
g3
Ntp2686
Rp2687
(g107
I00
g107
I00
g25
I00
I00
tp2688
bg107
tp2689
g1
(g11
g12
(I0
F17.94
I1
F1194.0
tp2690
tp2691
Rp2692
s(g1
(g2
g3
Ntp2693
Rp2694
(g99
I00
NNNNI01
tp2695
bg189
tp2696
g1
(g11
g12
(I0
F2.28
I1
F-372.0
tp2697
tp2698
Rp2699
s(g1
(g2
g3
Ntp2700
Rp2701
(g51
I00
NNg99
I00
I00
tp2702
bg159
tp2703
g1
(g11
g12
(I0
F2.88
I1
F-312.0
tp2704
tp2705
Rp2706
s(g1
(g2
g3
Ntp2707
Rp2708
(g91
I01
g90
I01
NNI00
tp2709
bg74
tp2710
g1
(g11
g12
(I0
F0.79
I1
F-521.0
tp2711
tp2712
Rp2713
s(g1
(g2
g3
Ntp2714
Rp2715
(g9
I00
NNNNI00
tp2716
bg7
tp2717
g1
(g11
g12
(I1
F46.92
I24
F-409.45833333333326
tp2718
tp2719
Rp2720
s(g1
(g2
g3
Ntp2721
Rp2722
(g50
I00
g51
I00
NNI00
tp2723
bg99
tp2724
g1
(g11
g12
(I0
F7.780000000000001
I8
F-502.75
tp2725
tp2726
Rp2727
s(g1
(g2
g3
Ntp2728
Rp2729
(g9
I00
g82
I00
NNI00
tp2730
bg9
tp2731
g1
(g11
g12
(I12
F170.0
I23
F139.1304347826087
tp2732
tp2733
Rp2734
s(g1
(g2
g3
Ntp2735
Rp2736
(g41
I00
NNNNI00
tp2737
bg90
tp2738
g1
(g11
g12
(I0
F23.369999999999997
I22
F-506.40909090909093
tp2739
tp2740
Rp2741
s(g1
(g2
g3
Ntp2742
Rp2743
(g159
I00
NNg50
I01
I00
tp2744
bg159
tp2745
g1
(g11
g12
(I0
F3.3499999999999996
I2
F-432.5
tp2746
tp2747
Rp2748
s(g1
(g2
g3
Ntp2749
Rp2750
(g82
I00
g7
I00
NNI00
tp2751
bg9
tp2752
g1
(g11
g12
(I0
F1.67
I3
F-544.3333333333333
tp2753
tp2754
Rp2755
s(g1
(g2
g3
Ntp2756
Rp2757
(g25
I00
g25
I00
g25
I00
I00
tp2758
bg25
tp2759
g1
(g11
g12
(I1
F51.980000000000004
I2
F1999.0
tp2760
tp2761
Rp2762
s(g1
(g2
g3
Ntp2763
Rp2764
(g7
I00
g6
I00
NNI00
tp2765
bg7
tp2766
g1
(g11
g12
(I16
F382.49000000000007
I190
F-405.3473684210525
tp2767
tp2768
Rp2769
s(g1
(g2
g3
Ntp2770
Rp2771
(g50
I01
g159
I01
NNI00
tp2772
bg99
tp2773
g1
(g11
g12
(I0
F0.52
I1
F-548.0
tp2774
tp2775
Rp2776
s(g1
(g2
g3
Ntp2777
Rp2778
(g41
I00
NNNNI00
tp2779
bg91
tp2780
g1
(g11
g12
(I0
F25.8
I23
F-498.391304347826
tp2781
tp2782
Rp2783
s(g1
(g2
g3
Ntp2784
Rp2785
(g25
I00
g26
I00
NNI00
tp2786
bg25
tp2787
g1
(g11
g12
(I1
F56.32000000000001
I3
F1277.3333333333333
tp2788
tp2789
Rp2790
s(g1
(g2
g3
Ntp2791
Rp2792
(g9
I00
g82
I00
NNI00
tp2793
bg60
tp2794
g1
(g11
g12
(I0
F2.43
I4
F-539.25
tp2795
tp2796
Rp2797
s(g1
(g2
g3
Ntp2798
Rp2799
(g9
I00
g82
I00
NNI00
tp2800
bg82
tp2801
g1
(g11
g12
(I0
F2.6100000000000003
I3
F-513.0
tp2802
tp2803
Rp2804
s(g1
(g2
g3
Ntp2805
Rp2806
(g6
I00
NNNNI01
tp2807
bg9
tp2808
g1
(g11
g12
(I0
F1.07
I5
F-600.2
tp2809
tp2810
Rp2811
s(g1
(g2
g3
Ntp2812
Rp2813
(g9
I01
NNg9
I01
I00
tp2814
bg82
tp2815
g1
(g11
g12
(I0
F5.320000000000001
I5
F-493.6
tp2816
tp2817
Rp2818
s(g1
(g2
g3
Ntp2819
Rp2820
(g51
I01
g99
I00
NNI00
tp2821
bg51
tp2822
g1
(g11
g12
(I0
F1.24
I1
F-476.0
tp2823
tp2824
Rp2825
s(g1
(g2
g3
Ntp2826
Rp2827
(g91
I00
g91
I00
NNI00
tp2828
bg91
tp2829
g1
(g11
g12
(I7
F138.94
I21
F48.42857142857144
tp2830
tp2831
Rp2832
s(g1
(g2
g3
Ntp2833
Rp2834
(g90
I00
NNNNI01
tp2835
bg74
tp2836
g1
(g11
g12
(I0
F1.51
I4
F-582.25
tp2837
tp2838
Rp2839
s.