(dp0
(ccopy_reg
_reconstructor
p1
(cfeatureBasedGameState
FeatureBasedGameState
p2
c__builtin__
object
p3
Ntp4
Rp5
(S'North'
p6
I00
tp7
bS'West'
p8
tp9
g1
(cmodel
ModelEntry
p10
c__builtin__
tuple
p11
(I56
F797.8499999999999
I318
F-349.2515723270444
tp12
tp13
Rp14
s(g1
(g2
g3
Ntp15
Rp16
(g6
I01
tp17
bg8
tp18
g1
(g10
g11
(I17
F1002.2700000000009
I1071
F-507.4341736694676
tp19
tp20
Rp21
s(g1
(g2
g3
Ntp22
Rp23
(g6
I00
tp24
bS'East'
p25
tp26
g1
(g10
g11
(I30
F368.5299999999999
I84
F-161.27380952380952
tp27
tp28
Rp29
s(g1
(g2
g3
Ntp30
Rp31
(g25
I00
tp32
bS'Stop'
p33
tp34
g1
(g10
g11
(I0
F1.42
I4
F-566.5
tp35
tp36
Rp37
s(g1
(g2
g3
Ntp38
Rp39
(g8
I01
tp40
bg33
tp41
g1
(g10
g11
(I25
F557.0100000000001
I419
F-467.30071599045374
tp42
tp43
Rp44
s(g1
(g2
g3
Ntp45
Rp46
(g6
I01
tp47
bg8
tp48
g1
(g10
g11
(I0
F225.8400000000001
I139
F-441.9352517985613
tp49
tp50
Rp51
s(g1
(g2
g3
Ntp52
Rp53
(S'South'
p54
I00
tp55
bg6
tp56
g1
(g10
g11
(I1
F16.349999999999998
I10
F-436.49999999999994
tp57
tp58
Rp59
s(g1
(g2
g3
Ntp60
Rp61
(g8
I01
tp62
bg54
tp63
g1
(g10
g11
(I5
F73.44000000000001
I33
F-377.4545454545456
tp64
tp65
Rp66
s(g1
(g2
g3
Ntp67
Rp68
(g54
I00
tp69
bg33
tp70
g1
(g10
g11
(I18
F703.3100000000004
I325
F-385.07384615384666
tp71
tp72
Rp73
s(g1
(g2
g3
Ntp74
Rp75
(g6
I00
tp76
bg25
tp77
g1
(g10
g11
(I5
F66.77
I13
F-86.38461538461539
tp78
tp79
Rp80
s(g1
(g2
g3
Ntp81
Rp82
(g54
I01
tp83
bg25
tp84
g1
(g10
g11
(I9
F485.71000000000004
I217
F-377.08755760368666
tp85
tp86
Rp87
s(g1
(g2
g3
Ntp88
Rp89
(g6
I00
tp90
bg33
tp91
g1
(g10
g11
(I4
F214.73000000000005
I149
F-462.17449664429535
tp92
tp93
Rp94
s(g1
(g2
g3
Ntp95
Rp96
(g54
I01
tp97
bg25
tp98
g1
(g10
g11
(I13
F343.99999999999983
I119
F-310.99159663865555
tp99
tp100
Rp101
s(g1
(g2
g3
Ntp102
Rp103
(g54
I00
tp104
bg25
tp105
g1
(g10
g11
(I6
F266.67
I142
F-413.4014084507043
tp106
tp107
Rp108
s(g1
(g2
g3
Ntp109
Rp110
(g6
I00
tp111
bg33
tp112
g1
(g10
g11
(I872
F14487.519999999975
I6181
F-365.95793560912307
tp113
tp114
Rp115
s(g1
(g2
g3
Ntp116
Rp117
(g8
I00
tp118
bg6
tp119
g1
(g10
g11
(I4
F72.07000000000001
I17
F-177.76470588235298
tp120
tp121
Rp122
s(g1
(g2
g3
Ntp123
Rp124
(g54
I01
tp125
bg6
tp126
g1
(g10
g11
(I15
F509.2200000000001
I186
F-327.306451612903
tp127
tp128
Rp129
s(g1
(g2
g3
Ntp130
Rp131
(g25
I00
tp132
bg33
tp133
g1
(g10
g11
(I745
F12462.51999999999
I5215
F-361.305273250238
tp134
tp135
Rp136
s(g1
(g2
g3
Ntp137
Rp138
(g8
I00
tp139
bg54
tp140
g1
(g10
g11
(I5
F304.61000000000007
I196
F-446.95918367346934
tp141
tp142
Rp143
s(g1
(g2
g3
Ntp144
Rp145
(g6
I01
tp146
bg25
tp147
g1
(g10
g11
(I33
F397.45000000000005
I84
F-126.84523809523796
tp148
tp149
Rp150
s(g1
(g2
g3
Ntp151
Rp152
(g54
I00
tp153
bg33
tp154
g1
(g10
g11
(I26
F288.27000000000004
I41
F102.90243902439023
tp155
tp156
Rp157
s(g1
(g2
g3
Ntp158
Rp159
(g54
I00
tp160
bg33
tp161
g1
(g10
g11
(I29
F1523.5499999999988
I677
F-376.39881831610046
tp162
tp163
Rp164
s(g1
(g2
g3
Ntp165
Rp166
(g54
I01
tp167
bg6
tp168
g1
(g10
g11
(I5
F142.64000000000001
I51
F-320.43137254901956
tp169
tp170
Rp171
s(g1
(g2
g3
Ntp172
Rp173
(g6
I01
tp174
bg8
tp175
g1
(g10
g11
(I0
F4.25
I9
F-553.6666666666666
tp176
tp177
Rp178
s(g1
(g2
g3
Ntp179
Rp180
(g8
I01
tp181
bg8
tp182
g1
(g10
g11
(I5
F476.4699999999998
I202
F-365.3415841584162
tp183
tp184
Rp185
s(g1
(g2
g3
Ntp186
Rp187
(g54
I00
tp188
bg25
tp189
g1
(g10
g11
(I1
F22.61
I6
F-223.16666666666666
tp190
tp191
Rp192
s(g1
(g2
g3
Ntp193
Rp194
(g6
I00
tp195
bg6
tp196
g1
(g10
g11
(I1146
F20439.80999999998
I9246
F-379.31483884923205
tp197
tp198
Rp199
s(g1
(g2
g3
Ntp200
Rp201
(g25
I00
tp202
bg6
tp203
g1
(g10
g11
(I41
F2190.3500000000035
I1834
F-481.30370774263895
tp204
tp205
Rp206
s(g1
(g2
g3
Ntp207
Rp208
(g54
I00
tp209
bg33
tp210
g1
(g10
g11
(I0
F5.390000000000001
I2
F-330.5
tp211
tp212
Rp213
s(g1
(g2
g3
Ntp214
Rp215
(g8
I01
tp216
bg8
tp217
g1
(g10
g11
(I2
F55.83000000000001
I20
F-320.85
tp218
tp219
Rp220
s(g1
(g2
g3
Ntp221
Rp222
(g8
I00
tp223
bg25
tp224
g1
(g10
g11
(I0
F11.030000000000001
I5
F-379.4
tp225
tp226
Rp227
s(g1
(g2
g3
Ntp228
Rp229
(g6
I00
tp230
bg25
tp231
g1
(g10
g11
(I14
F892.6200000000007
I435
F-397.1425287356322
tp232
tp233
Rp234
s(g1
(g2
g3
Ntp235
Rp236
(g8
I00
tp237
bg33
tp238
g1
(g10
g11
(I90
F1075.22
I223
F-117.83856502242165
tp239
tp240
Rp241
s(g1
(g2
g3
Ntp242
Rp243
(g54
I00
tp244
bg33
tp245
g1
(g10
g11
(I122
F1463.1200000000006
I345
F-176.11884057971008
tp246
tp247
Rp248
s(g1
(g2
g3
Ntp249
Rp250
(g6
I00
tp251
bg25
tp252
g1
(g10
g11
(I2
F37.17
I8
F-135.375
tp253
tp254
Rp255
s(g1
(g2
g3
Ntp256
Rp257
(g25
I01
tp258
bg33
tp259
g1
(g10
g11
(I1
F19.38
I12
F-438.50000000000006
tp260
tp261
Rp262
s(g1
(g2
g3
Ntp263
Rp264
(g25
I00
tp265
bg25
tp266
g1
(g10
g11
(I0
F12.339999999999998
I10
F-476.59999999999997
tp267
tp268
Rp269
s(g1
(g2
g3
Ntp270
Rp271
(g8
I00
tp272
bg33
tp273
g1
(g10
g11
(I3
F81.61999999999999
I33
F-355.6666666666667
tp274
tp275
Rp276
s(g1
(g2
g3
Ntp277
Rp278
(g6
I01
tp279
bg6
tp280
g1
(g10
g11
(I389
F6725.269999999998
I3214
F-390.85749844430603
tp281
tp282
Rp283
s(g1
(g2
g3
Ntp284
Rp285
(g6
I01
tp286
bg25
tp287
g1
(g10
g11
(I16
F1010.7000000000014
I1066
F-506.1604127579737
tp288
tp289
Rp290
s(g1
(g2
g3
Ntp291
Rp292
(g8
I00
tp293
bg25
tp294
g1
(g10
g11
(I1
F53.449999999999996
I27
F-402.037037037037
tp295
tp296
Rp297
s(g1
(g2
g3
Ntp298
Rp299
(g25
I00
tp300
bg33
tp301
g1
(g10
g11
(I0
F7.92
I6
F-468.0
tp302
tp303
Rp304
s(g1
(g2
g3
Ntp305
Rp306
(g54
I00
tp307
bg54
tp308
g1
(g10
g11
(I63
F3202.5100000000007
I1372
F-367.74708454810417
tp309
tp310
Rp311
s(g1
(g2
g3
Ntp312
Rp313
(g8
I01
tp314
bg33
tp315
g1
(g10
g11
(I2
F38.55
I11
F-249.54545454545453
tp316
tp317
Rp318
s(g1
(g2
g3
Ntp319
Rp320
(g54
I00
tp321
bg8
tp322
g1
(g10
g11
(I21
F692.2600000000002
I498
F-461.2991967871483
tp323
tp324
Rp325
s(g1
(g2
g3
Ntp326
Rp327
(g6
I01
tp328
bg54
tp329
g1
(g10
g11
(I7
F388.0999999999999
I182
F-390.3516483516484
tp330
tp331
Rp332
s(g1
(g2
g3
Ntp333
Rp334
(g6
I00
tp335
bg6
tp336
g1
(g10
g11
(I61
F2509.960000000001
I1064
F-365.7246240601497
tp337
tp338
Rp339
s(g1
(g2
g3
Ntp340
Rp341
(g54
I01
tp342
bg8
tp343
g1
(g10
g11
(I6
F412.18
I199
F-394.6683417085429
tp344
tp345
Rp346
s(g1
(g2
g3
Ntp347
Rp348
(g8
I00
tp349
bg8
tp350
g1
(g10
g11
(I57
F714.8599999999999
I186
F-215.66666666666666
tp351
tp352
Rp353
s(g1
(g2
g3
Ntp354
Rp355
(g8
I00
tp356
bg8
tp357
g1
(g10
g11
(I146
F1587.8999999999999
I157
F411.07006369426756
tp358
tp359
Rp360
s(g1
(g2
g3
Ntp361
Rp362
(g6
I00
tp363
bg25
tp364
g1
(g10
g11
(I78
F3417.4999999999945
I2635
F-470.9635673624294
tp365
tp366
Rp367
s(g1
(g2
g3
Ntp368
Rp369
(g54
I00
tp370
bg6
tp371
g1
(g10
g11
(I1
F24.689999999999998
I6
F-188.50000000000003
tp372
tp373
Rp374
s(g1
(g2
g3
Ntp375
Rp376
(g6
I00
tp377
bg54
tp378
g1
(g10
g11
(I1
F29.47
I9
F-272.55555555555554
tp379
tp380
Rp381
s(g1
(g2
g3
Ntp382
Rp383
(g54
I00
tp384
bg54
tp385
g1
(g10
g11
(I129
F1408.1600000000003
I149
F344.724832214765
tp386
tp387
Rp388
s(g1
(g2
g3
Ntp389
Rp390
(g8
I01
tp391
bg54
tp392
g1
(g10
g11
(I0
F17.27
I8
F-384.125
tp393
tp394
Rp395
s(g1
(g2
g3
Ntp396
Rp397
(g8
I01
tp398
bg33
tp399
g1
(g10
g11
(I25
F700.7899999999996
I496
F-458.9798387096773
tp400
tp401
Rp402
s(g1
(g2
g3
Ntp403
Rp404
(g6
I01
tp405
bg25
tp406
g1
(g10
g11
(I1
F283.8999999999999
I145
F-406.6275862068966
tp407
tp408
Rp409
s(g1
(g2
g3
Ntp410
Rp411
(g54
I00
tp412
bg54
tp413
g1
(g10
g11
(I0
F23.669999999999998
I33
F-532.2121212121215
tp414
tp415
Rp416
s(g1
(g2
g3
Ntp417
Rp418
(g8
I01
tp419
bg8
tp420
g1
(g10
g11
(I11
F363.90999999999985
I323
F-487.4055727554179
tp421
tp422
Rp423
s(g1
(g2
g3
Ntp424
Rp425
(g8
I00
tp426
bg8
tp427
g1
(g10
g11
(I911
F10885.249999999989
I2237
F-113.50022351363367
tp428
tp429
Rp430
s(g1
(g2
g3
Ntp431
Rp432
(g6
I00
tp433
bg25
tp434
g1
(g10
g11
(I6
F75.19000000000001
I28
F-333.03571428571433
tp435
tp436
Rp437
s(g1
(g2
g3
Ntp438
Rp439
(g6
I00
tp440
bg6
tp441
g1
(g10
g11
(I13
F585.8800000000005
I367
F-443.8283378746591
tp442
tp443
Rp444
s(g1
(g2
g3
Ntp445
Rp446
(g6
I00
tp447
bg54
tp448
g1
(g10
g11
(I11
F285.6700000000001
I175
F-439.7257142857141
tp449
tp450
Rp451
s(g1
(g2
g3
Ntp452
Rp453
(g8
I00
tp454
bg54
tp455
g1
(g10
g11
(I14
F981.8300000000007
I466
F-391.94849785407706
tp456
tp457
Rp458
s(g1
(g2
g3
Ntp459
Rp460
(g6
I01
tp461
bg6
tp462
g1
(g10
g11
(I0
F21.139999999999997
I26
F-518.6923076923077
tp463
tp464
Rp465
s(g1
(g2
g3
Ntp466
Rp467
(g54
I01
tp468
bg25
tp469
g1
(g10
g11
(I2
F54.050000000000004
I22
F-354.3181818181818
tp470
tp471
Rp472
s(g1
(g2
g3
Ntp473
Rp474
(g54
I00
tp475
bg8
tp476
g1
(g10
g11
(I0
F6.18
I4
F-445.5
tp477
tp478
Rp479
s(g1
(g2
g3
Ntp480
Rp481
(g6
I00
tp482
bg54
tp483
g1
(g10
g11
(I785
F12515.819999999956
I5484
F-372.2186360320895
tp484
tp485
Rp486
s(g1
(g2
g3
Ntp487
Rp488
(g54
I01
tp489
bg6
tp490
g1
(g10
g11
(I212
F2469.080000000001
I463
F-66.83801295896339
tp491
tp492
Rp493
s(g1
(g2
g3
Ntp494
Rp495
(g54
I00
tp496
bg54
tp497
g1
(g10
g11
(I5
F73.58
I15
F-110.13333333333333
tp498
tp499
Rp500
s(g1
(g2
g3
Ntp501
Rp502
(g8
I01
tp503
bg33
tp504
g1
(g10
g11
(I0
F0.78
I2
F-561.0
tp505
tp506
Rp507
s(g1
(g2
g3
Ntp508
Rp509
(g54
I01
tp510
bg8
tp511
g1
(g10
g11
(I2
F38.08
I29
F-471.51724137931035
tp512
tp513
Rp514
s(g1
(g2
g3
Ntp515
Rp516
(g54
I01
tp517
bg54
tp518
g1
(g10
g11
(I2
F368.39000000000016
I172
F-386.49418604651186
tp519
tp520
Rp521
s(g1
(g2
g3
Ntp522
Rp523
(g8
I00
tp524
bg8
tp525
g1
(g10
g11
(I3
F44.36
I12
F-231.33333333333334
tp526
tp527
Rp528
s(g1
(g2
g3
Ntp529
Rp530
(g6
I00
tp531
bg8
tp532
g1
(g10
g11
(I1
F12.96
I1
F696.0
tp533
tp534
Rp535
s(g1
(g2
g3
Ntp536
Rp537
(g6
I00
tp538
bg8
tp539
g1
(g10
g11
(I6
F264.90999999999997
I161
F-437.8322981366461
tp540
tp541
Rp542
s(g1
(g2
g3
Ntp543
Rp544
(g6
I01
tp545
bg25
tp546
g1
(g10
g11
(I1
F17.69
I3
F-10.333333333333329
tp547
tp548
Rp549
s(g1
(g2
g3
Ntp550
Rp551
(g6
I01
tp552
bg33
tp553
g1
(g10
g11
(I1
F103.29999999999993
I47
F-380.21276595744695
tp554
tp555
Rp556
s(g1
(g2
g3
Ntp557
Rp558
(g8
I00
tp559
bg33
tp560
g1
(g10
g11
(I2
F27.18
I6
F-147.00000000000003
tp561
tp562
Rp563
s(g1
(g2
g3
Ntp564
Rp565
(g54
I01
tp566
bg6
tp567
g1
(g10
g11
(I0
F1.55
I2
F-522.5
tp568
tp569
Rp570
s(g1
(g2
g3
Ntp571
Rp572
(g6
I00
tp573
bg6
tp574
g1
(g10
g11
(I7
F94.76
I17
F-42.58823529411764
tp575
tp576
Rp577
s(g1
(g2
g3
Ntp578
Rp579
(g8
I01
tp580
bg8
tp581
g1
(g10
g11
(I0
F7.8999999999999995
I3
F-336.6666666666667
tp582
tp583
Rp584
s(g1
(g2
g3
Ntp585
Rp586
(g6
I00
tp587
bg6
tp588
g1
(g10
g11
(I12
F230.61999999999995
I64
F-239.70312499999983
tp589
tp590
Rp591
s(g1
(g2
g3
Ntp592
Rp593
(g25
I01
tp594
bg33
tp595
g1
(g10
g11
(I0
F3.32
I4
F-517.0
tp596
tp597
Rp598
s(g1
(g2
g3
Ntp599
Rp600
(g54
I00
tp601
bg8
tp602
g1
(g10
g11
(I0
F2.48
I2
F-476.0
tp603
tp604
Rp605
s(g1
(g2
g3
Ntp606
Rp607
(g54
I00
tp608
bg33
tp609
g1
(g10
g11
(I20
F236.39000000000001
I52
F-145.94230769230774
tp610
tp611
Rp612
s(g1
(g2
g3
Ntp613
Rp614
(g6
I00
tp615
bg6
tp616
g1
(g10
g11
(I51
F620.2000000000003
I144
F-169.3611111111111
tp617
tp618
Rp619
s(g1
(g2
g3
Ntp620
Rp621
(g6
I00
tp622
bg8
tp623
g1
(g10
g11
(I6
F106.05000000000003
I28
F-221.25000000000003
tp624
tp625
Rp626
s(g1
(g2
g3
Ntp627
Rp628
(g6
I01
tp629
bg25
tp630
g1
(g10
g11
(I0
F4.67
I8
F-541.625
tp631
tp632
Rp633
s(g1
(g2
g3
Ntp634
Rp635
(g8
I01
tp636
bg25
tp637
g1
(g10
g11
(I1
F326.91000000000014
I175
F-416.5485714285717
tp638
tp639
Rp640
s(g1
(g2
g3
Ntp641
Rp642
(g8
I00
tp643
bg33
tp644
g1
(g10
g11
(I76
F826.85
I86
F361.36046511627893
tp645
tp646
Rp647
s(g1
(g2
g3
Ntp648
Rp649
(g54
I00
tp650
bg6
tp651
g1
(g10
g11
(I4
F79.27000000000002
I25
F-288.88000000000005
tp652
tp653
Rp654
s(g1
(g2
g3
Ntp655
Rp656
(g54
I01
tp657
bg33
tp658
g1
(g10
g11
(I145
F1770.8800000000015
I392
F-148.32142857142853
tp659
tp660
Rp661
s(g1
(g2
g3
Ntp662
Rp663
(g6
I00
tp664
bg8
tp665
g1
(g10
g11
(I10
F801.6100000000001
I403
F-403.5856079404464
tp666
tp667
Rp668
s(g1
(g2
g3
Ntp669
Rp670
(g8
I00
tp671
bg6
tp672
g1
(g10
g11
(I0
F7.33
I5
F-453.40000000000003
tp673
tp674
Rp675
s(g1
(g2
g3
Ntp676
Rp677
(g6
I00
tp678
bg54
tp679
g1
(g10
g11
(I3
F36.71000000000001
I6
F11.833333333333336
tp680
tp681
Rp682
s(g1
(g2
g3
Ntp683
Rp684
(g8
I00
tp685
bg54
tp686
g1
(g10
g11
(I1
F42.24999999999999
I44
F-503.97727272727263
tp687
tp688
Rp689
s(g1
(g2
g3
Ntp690
Rp691
(g54
I00
tp692
bg33
tp693
g1
(g10
g11
(I0
F36.96
I16
F-369.00000000000006
tp694
tp695
Rp696
s(g1
(g2
g3
Ntp697
Rp698
(g54
I01
tp699
bg33
tp700
g1
(g10
g11
(I190
F2123.5499999999993
I283
F150.27208480565375
tp701
tp702
Rp703
s(g1
(g2
g3
Ntp704
Rp705
(g25
I01
tp706
bg6
tp707
g1
(g10
g11
(I0
F7.44
I9
F-517.3333333333335
tp708
tp709
Rp710
s(g1
(g2
g3
Ntp711
Rp712
(g54
I00
tp713
bg6
tp714
g1
(g10
g11
(I15
F599.4499999999996
I453
F-468.47902869757166
tp715
tp716
Rp717
s(g1
(g2
g3
Ntp718
Rp719
(g54
I00
tp720
bg6
tp721
g1
(g10
g11
(I2
F89.99999999999999
I90
F-501.8666666666668
tp722
tp723
Rp724
s(g1
(g2
g3
Ntp725
Rp726
(g8
I00
tp727
bg8
tp728
g1
(g10
g11
(I6
F76.3
I14
F-57.35714285714288
tp729
tp730
Rp731
s(g1
(g2
g3
Ntp732
Rp733
(g54
I00
tp734
bg6
tp735
g1
(g10
g11
(I9
F110.97
I33
F-263.72727272727275
tp736
tp737
Rp738
s(g1
(g2
g3
Ntp739
Rp740
(g8
I00
tp741
bg8
tp742
g1
(g10
g11
(I5
F76.35
I21
F-236.42857142857125
tp743
tp744
Rp745
s(g1
(g2
g3
Ntp746
Rp747
(g6
I01
tp748
bg33
tp749
g1
(g10
g11
(I16
F1027.8499999999997
I1067
F-504.3458294283033
tp750
tp751
Rp752
s(g1
(g2
g3
Ntp753
Rp754
(g6
I00
tp755
bg33
tp756
g1
(g10
g11
(I163
F2102.1499999999987
I622
F-262.17363344051483
tp757
tp758
Rp759
s(g1
(g2
g3
Ntp760
Rp761
(g25
I00
tp762
bg25
tp763
g1
(g10
g11
(I3
F76.11999999999999
I50
F-447.76000000000005
tp764
tp765
Rp766
s(g1
(g2
g3
Ntp767
Rp768
(g8
I00
tp769
bg8
tp770
g1
(g10
g11
(I16
F268.9000000000001
I79
F-262.11392405063276
tp771
tp772
Rp773
s(g1
(g2
g3
Ntp774
Rp775
(g25
I00
tp776
bg33
tp777
g1
(g10
g11
(I0
F6.4399999999999995
I4
F-439.0
tp778
tp779
Rp780
s(g1
(g2
g3
Ntp781
Rp782
(g54
I01
tp783
bg33
tp784
g1
(g10
g11
(I13
F556.5500000000002
I236
F-366.1949152542373
tp785
tp786
Rp787
s(g1
(g2
g3
Ntp788
Rp789
(g54
I01
tp790
bg8
tp791
g1
(g10
g11
(I0
F12.81
I5
F-343.79999999999995
tp792
tp793
Rp794
s(g1
(g2
g3
Ntp795
Rp796
(g54
I00
tp797
bg25
tp798
g1
(g10
g11
(I49
F633.6699999999996
I200
F-283.58999999999986
tp799
tp800
Rp801
s(g1
(g2
g3
Ntp802
Rp803
(g6
I00
tp804
bg33
tp805
g1
(g10
g11
(I19
F986.3400000000007
I465
F-389.70322580645137
tp806
tp807
Rp808
s(g1
(g2
g3
Ntp809
Rp810
(g8
I00
tp811
bg8
tp812
g1
(g10
g11
(I6
F125.48000000000002
I48
F-340.0416666666666
tp813
tp814
Rp815
s(g1
(g2
g3
Ntp816
Rp817
(g6
I00
tp818
bg54
tp819
g1
(g10
g11
(I5
F59.050000000000004
I13
F-149.30769230769235
tp820
tp821
Rp822
s(g1
(g2
g3
Ntp823
Rp824
(g8
I00
tp825
bg8
tp826
g1
(g10
g11
(I0
F2.83
I1
F-317.0
tp827
tp828
Rp829
s(g1
(g2
g3
Ntp830
Rp831
(g6
I00
tp832
bg33
tp833
g1
(g10
g11
(I5
F95.32000000000001
I29
F-273.51724137931035
tp834
tp835
Rp836
s(g1
(g2
g3
Ntp837
Rp838
(g54
I01
tp839
bg33
tp840
g1
(g10
g11
(I36
F498.7000000000002
I190
F-337.8421052631579
tp841
tp842
Rp843
s(g1
(g2
g3
Ntp844
Rp845
(g54
I00
tp846
bg25
tp847
g1
(g10
g11
(I3
F38.77
I9
F-170.55555555555554
tp848
tp849
Rp850
s(g1
(g2
g3
Ntp851
Rp852
(g54
I00
tp853
bg6
tp854
g1
(g10
g11
(I3
F68.62
I26
F-336.30769230769226
tp855
tp856
Rp857
s(g1
(g2
g3
Ntp858
Rp859
(g54
I00
tp860
bg33
tp861
g1
(g10
g11
(I830
F9745.30999999999
I1716
F-32.50757575757559
tp862
tp863
Rp864
s(g1
(g2
g3
Ntp865
Rp866
(g6
I01
tp867
bg54
tp868
g1
(g10
g11
(I3
F54.379999999999995
I35
F-444.9714285714286
tp869
tp870
Rp871
s(g1
(g2
g3
Ntp872
Rp873
(g6
I00
tp874
bg8
tp875
g1
(g10
g11
(I997
F15744.429999999993
I6273
F-349.29826239438495
tp876
tp877
Rp878
s(g1
(g2
g3
Ntp879
Rp880
(g8
I01
tp881
bg8
tp882
g1
(g10
g11
(I9
F383.4499999999999
I375
F-498.0080000000003
tp883
tp884
Rp885
s(g1
(g2
g3
Ntp886
Rp887
(g6
I00
tp888
bg33
tp889
g1
(g10
g11
(I1
F39.53
I17
F-367.4705882352941
tp890
tp891
Rp892
s(g1
(g2
g3
Ntp893
Rp894
(g8
I01
tp895
bg54
tp896
g1
(g10
g11
(I2
F379.59999999999985
I182
F-393.78571428571433
tp897
tp898
Rp899
s(g1
(g2
g3
Ntp900
Rp901
(g6
I01
tp902
bg54
tp903
g1
(g10
g11
(I0
F18.77
I11
F-429.3636363636364
tp904
tp905
Rp906
s(g1
(g2
g3
Ntp907
Rp908
(g54
I01
tp909
bg25
tp910
g1
(g10
g11
(I205
F2454.6400000000003
I531
F-137.74011299435008
tp911
tp912
Rp913
s(g1
(g2
g3
Ntp914
Rp915
(g6
I00
tp916
bg33
tp917
g1
(g10
g11
(I4
F49.62
I12
F-187.16666666666669
tp918
tp919
Rp920
s(g1
(g2
g3
Ntp921
Rp922
(g6
I00
tp923
bg8
tp924
g1
(g10
g11
(I6
F90.18000000000002
I45
F-402.11111111111126
tp925
tp926
Rp927
s(g1
(g2
g3
Ntp928
Rp929
(g8
I01
tp930
bg6
tp931
g1
(g10
g11
(I0
F1.6
I2
F-520.0
tp932
tp933
Rp934
s(g1
(g2
g3
Ntp935
Rp936
(g54
I00
tp937
bg54
tp938
g1
(g10
g11
(I1070
F12022.449999999984
I1658
F125.02231604342575
tp939
tp940
Rp941
s(g1
(g2
g3
Ntp942
Rp943
(g8
I00
tp944
bg33
tp945
g1
(g10
g11
(I5
F76.55000000000001
I25
F-295.83999999999986
tp946
tp947
Rp948
s(g1
(g2
g3
Ntp949
Rp950
(g8
I01
tp951
bg33
tp952
g1
(g10
g11
(I8
F90.36999999999999
I13
F95.15384615384622
tp953
tp954
Rp955
s(g1
(g2
g3
Ntp956
Rp957
(g6
I00
tp958
bg54
tp959
g1
(g10
g11
(I9
F194.8000000000001
I145
F-465.78620689655213
tp960
tp961
Rp962
s(g1
(g2
g3
Ntp963
Rp964
(g6
I00
tp965
bg8
tp966
g1
(g10
g11
(I0
F17.23
I7
F-353.8571428571429
tp967
tp968
Rp969
s(g1
(g2
g3
Ntp970
Rp971
(g25
I01
tp972
bg25
tp973
g1
(g10
g11
(I0
F0.04
I1
F-596.0
tp974
tp975
Rp976
s(g1
(g2
g3
Ntp977
Rp978
(g54
I00
tp979
bg33
tp980
g1
(g10
g11
(I0
F15.35
I6
F-344.16666666666674
tp981
tp982
Rp983
s(g1
(g2
g3
Ntp984
Rp985
(g25
I01
tp986
bg33
tp987
g1
(g10
g11
(I0
F1.24
I2
F-538.0
tp988
tp989
Rp990
s(g1
(g2
g3
Ntp991
Rp992
(g6
I00
tp993
bg54
tp994
g1
(g10
g11
(I2
F99.68
I35
F-315.2000000000001
tp995
tp996
Rp997
s(g1
(g2
g3
Ntp998
Rp999
(g25
I01
tp1000
bg6
tp1001
g1
(g10
g11
(I0
F2.17
I3
F-527.6666666666666
tp1002
tp1003
Rp1004
s(g1
(g2
g3
Ntp1005
Rp1006
(g8
I00
tp1007
bg33
tp1008
g1
(g10
g11
(I1
F26.770000000000003
I7
F-217.5714285714286
tp1009
tp1010
Rp1011
s(g1
(g2
g3
Ntp1012
Rp1013
(g54
I01
tp1014
bg33
tp1015
g1
(g10
g11
(I3
F52.980000000000004
I33
F-439.7575757575758
tp1016
tp1017
Rp1018
s(g1
(g2
g3
Ntp1019
Rp1020
(g8
I00
tp1021
bg8
tp1022
g1
(g10
g11
(I27
F1109.6
I495
F-377.3575757575761
tp1023
tp1024
Rp1025
s(g1
(g2
g3
Ntp1026
Rp1027
(g6
I00
tp1028
bg8
tp1029
g1
(g10
g11
(I8
F90.71000000000001
I18
F-97.3888888888889
tp1030
tp1031
Rp1032
s(g1
(g2
g3
Ntp1033
Rp1034
(g6
I01
tp1035
bg8
tp1036
g1
(g10
g11
(I1
F33.449999999999996
I14
F-366.71428571428567
tp1037
tp1038
Rp1039
s(g1
(g2
g3
Ntp1040
Rp1041
(g54
I00
tp1042
bg8
tp1043
g1
(g10
g11
(I0
F10.940000000000001
I14
F-523.9285714285714
tp1044
tp1045
Rp1046
s(g1
(g2
g3
Ntp1047
Rp1048
(g8
I01
tp1049
bg33
tp1050
g1
(g10
g11
(I0
F10.94
I14
F-521.8571428571428
tp1051
tp1052
Rp1053
s(g1
(g2
g3
Ntp1054
Rp1055
(g54
I01
tp1056
bg54
tp1057
g1
(g10
g11
(I3
F53.96000000000001
I33
F-439.2727272727273
tp1058
tp1059
Rp1060
s(g1
(g2
g3
Ntp1061
Rp1062
(g8
I01
tp1063
bg6
tp1064
g1
(g10
g11
(I0
F3.45
I4
F-513.75
tp1065
tp1066
Rp1067
s(g1
(g2
g3
Ntp1068
Rp1069
(g54
I00
tp1070
bg8
tp1071
g1
(g10
g11
(I1
F12.81
I2
F40.5
tp1072
tp1073
Rp1074
s(g1
(g2
g3
Ntp1075
Rp1076
(g6
I00
tp1077
bg33
tp1078
g1
(g10
g11
(I0
F16.98
I7
F-357.42857142857144
tp1079
tp1080
Rp1081
s(g1
(g2
g3
Ntp1082
Rp1083
(g25
I01
tp1084
bg54
tp1085
g1
(g10
g11
(I0
F0.04
I2
F-620.0
tp1086
tp1087
Rp1088
s(g1
(g2
g3
Ntp1089
Rp1090
(g54
I00
tp1091
bg6
tp1092
g1
(g10
g11
(I0
F6.63
I6
F-489.5
tp1093
tp1094
Rp1095
s(g1
(g2
g3
Ntp1096
Rp1097
(g8
I01
tp1098
bg8
tp1099
g1
(g10
g11
(I0
F2.66
I1
F-334.0
tp1100
tp1101
Rp1102
s(g1
(g2
g3
Ntp1103
Rp1104
(g25
I00
tp1105
bg6
tp1106
g1
(g10
g11
(I0
F0.22
I3
F-596.0
tp1107
tp1108
Rp1109
s(g1
(g2
g3
Ntp1110
Rp1111
(g8
I00
tp1112
bg33
tp1113
g1
(g10
g11
(I0
F21.4
I11
F-405.4545454545455
tp1114
tp1115
Rp1116
s(g1
(g2
g3
Ntp1117
Rp1118
(g6
I01
tp1119
bg54
tp1120
g1
(g10
g11
(I0
F4.82
I8
F-539.75
tp1121
tp1122
Rp1123
s(g1
(g2
g3
Ntp1124
Rp1125
(g54
I00
tp1126
bg6
tp1127
g1
(g10
g11
(I1
F17.349999999999998
I17
F-498.4117647058824
tp1128
tp1129
Rp1130
s(g1
(g2
g3
Ntp1131
Rp1132
(g8
I00
tp1133
bg6
tp1134
g1
(g10
g11
(I51
F2164.2899999999977
I1005
F-386.06567164179125
tp1135
tp1136
Rp1137
s(g1
(g2
g3
Ntp1138
Rp1139
(g6
I00
tp1140
bg54
tp1141
g1
(g10
g11
(I1
F21.299999999999997
I5
F-174.0
tp1142
tp1143
Rp1144
s(g1
(g2
g3
Ntp1145
Rp1146
(g54
I00
tp1147
bg6
tp1148
g1
(g10
g11
(I0
F11.53
I17
F-535.8235294117646
tp1149
tp1150
Rp1151
s(g1
(g2
g3
Ntp1152
Rp1153
(g54
I00
tp1154
bg33
tp1155
g1
(g10
g11
(I18
F202.12
I34
F-5.529411764705889
tp1156
tp1157
Rp1158
s(g1
(g2
g3
Ntp1159
Rp1160
(g8
I00
tp1161
bg25
tp1162
g1
(g10
g11
(I4
F86.85
I29
F-302.2068965517242
tp1163
tp1164
Rp1165
s(g1
(g2
g3
Ntp1166
Rp1167
(g25
I00
tp1168
bg54
tp1169
g1
(g10
g11
(I0
F0.33999999999999997
I3
F-603.3333333333333
tp1170
tp1171
Rp1172
s(g1
(g2
g3
Ntp1173
Rp1174
(g8
I00
tp1175
bg8
tp1176
g1
(g10
g11
(I837
F11631.949999999992
I3651
F-281.89619282388367
tp1177
tp1178
Rp1179
s(g1
(g2
g3
Ntp1180
Rp1181
(g54
I00
tp1182
bg33
tp1183
g1
(g10
g11
(I7
F74.42
I14
F-69.2857142857143
tp1184
tp1185
Rp1186
s(g1
(g2
g3
Ntp1187
Rp1188
(g8
I00
tp1189
bg6
tp1190
g1
(g10
g11
(I10
F469.4200000000003
I227
F-395.08370044052896
tp1191
tp1192
Rp1193
s(g1
(g2
g3
Ntp1194
Rp1195
(g54
I01
tp1196
bg6
tp1197
g1
(g10
g11
(I116
F1334.7800000000004
I225
F-6.764444444444463
tp1198
tp1199
Rp1200
s(g1
(g2
g3
Ntp1201
Rp1202
(g54
I00
tp1203
bg8
tp1204
g1
(g10
g11
(I0
F21.1
I17
F-479.529411764706
tp1205
tp1206
Rp1207
s(g1
(g2
g3
Ntp1208
Rp1209
(g54
I00
tp1210
bg8
tp1211
g1
(g10
g11
(I0
F38.2
I16
F-361.24999999999994
tp1212
tp1213
Rp1214
s(g1
(g2
g3
Ntp1215
Rp1216
(g54
I00
tp1217
bg54
tp1218
g1
(g10
g11
(I3
F50.52
I11
F-140.72727272727272
tp1219
tp1220
Rp1221
s(g1
(g2
g3
Ntp1222
Rp1223
(g54
I01
tp1224
bg54
tp1225
g1
(g10
g11
(I14
F175.50000000000003
I46
F-218.65217391304338
tp1226
tp1227
Rp1228
s(g1
(g2
g3
Ntp1229
Rp1230
(g54
I00
tp1231
bg6
tp1232
g1
(g10
g11
(I1
F14.32
I5
F-313.6
tp1233
tp1234
Rp1235
s(g1
(g2
g3
Ntp1236
Rp1237
(g6
I00
tp1238
bg25
tp1239
g1
(g10
g11
(I10
F161.95999999999998
I39
F-187.48717948717947
tp1240
tp1241
Rp1242
s(g1
(g2
g3
Ntp1243
Rp1244
(g8
I00
tp1245
bg54
tp1246
g1
(g10
g11
(I3
F88.5
I33
F-331.8181818181818
tp1247
tp1248
Rp1249
s(g1
(g2
g3
Ntp1250
Rp1251
(g8
I00
tp1252
bg54
tp1253
g1
(g10
g11
(I0
F5.72
I5
F-485.6
tp1254
tp1255
Rp1256
s(g1
(g2
g3
Ntp1257
Rp1258
(g8
I00
tp1259
bg33
tp1260
g1
(g10
g11
(I5
F88.69999999999999
I50
F-422.65999999999997
tp1261
tp1262
Rp1263
s(g1
(g2
g3
Ntp1264
Rp1265
(g8
I00
tp1266
bg33
tp1267
g1
(g10
g11
(I70
F882.0899999999996
I246
F-241.56097560975644
tp1268
tp1269
Rp1270
s(g1
(g2
g3
Ntp1271
Rp1272
(g6
I00
tp1273
bg6
tp1274
g1
(g10
g11
(I4
F81.06
I24
F-263.4583333333333
tp1275
tp1276
Rp1277
s(g1
(g2
g3
Ntp1278
Rp1279
(g6
I01
tp1280
bg6
tp1281
g1
(g10
g11
(I8
F92.39999999999999
I15
F16.00000000000002
tp1282
tp1283
Rp1284
s(g1
(g2
g3
Ntp1285
Rp1286
(g54
I00
tp1287
bg8
tp1288
g1
(g10
g11
(I39
F497.22
I162
F-293.66049382716056
tp1289
tp1290
Rp1291
s(g1
(g2
g3
Ntp1292
Rp1293
(g54
I00
tp1294
bg33
tp1295
g1
(g10
g11
(I0
F15.330000000000002
I17
F-509.82352941176464
tp1296
tp1297
Rp1298
s(g1
(g2
g3
Ntp1299
Rp1300
(g6
I00
tp1301
bg54
tp1302
g1
(g10
g11
(I22
F1092.5300000000009
I496
F-382.36693548387075
tp1303
tp1304
Rp1305
s(g1
(g2
g3
Ntp1306
Rp1307
(g54
I00
tp1308
bg54
tp1309
g1
(g10
g11
(I872
F11110.299999999988
I2613
F-175.25985457328528
tp1310
tp1311
Rp1312
s(g1
(g2
g3
Ntp1313
Rp1314
(g8
I00
tp1315
bg33
tp1316
g1
(g10
g11
(I15
F569.0499999999996
I256
F-379.23828125000006
tp1317
tp1318
Rp1319
s(g1
(g2
g3
Ntp1320
Rp1321
(g6
I01
tp1322
bg8
tp1323
g1
(g10
g11
(I1
F94.16999999999997
I49
F-408.9183673469387
tp1324
tp1325
Rp1326
s(g1
(g2
g3
Ntp1327
Rp1328
(g54
I00
tp1329
bg25
tp1330
g1
(g10
g11
(I32
F1615.5799999999988
I701
F-370.53209700427954
tp1331
tp1332
Rp1333
s(g1
(g2
g3
Ntp1334
Rp1335
(g8
I01
tp1336
bg54
tp1337
g1
(g10
g11
(I12
F419.19
I399
F-496.2255639097737
tp1338
tp1339
Rp1340
s(g1
(g2
g3
Ntp1341
Rp1342
(g54
I01
tp1343
bg54
tp1344
g1
(g10
g11
(I0
F2.74
I1
F-326.0
tp1345
tp1346
Rp1347
s(g1
(g2
g3
Ntp1348
Rp1349
(g54
I01
tp1350
bg6
tp1351
g1
(g10
g11
(I2
F35.13
I22
F-440.31818181818176
tp1352
tp1353
Rp1354
s(g1
(g2
g3
Ntp1355
Rp1356
(g8
I00
tp1357
bg6
tp1358
g1
(g10
g11
(I2
F103.85000000000002
I41
F-346.7073170731706
tp1359
tp1360
Rp1361
s(g1
(g2
g3
Ntp1362
Rp1363
(g54
I01
tp1364
bg33
tp1365
g1
(g10
g11
(I0
F2.71
I3
F-509.66666666666663
tp1366
tp1367
Rp1368
s(g1
(g2
g3
Ntp1369
Rp1370
(g54
I00
tp1371
bg54
tp1372
g1
(g10
g11
(I186
F2028.8200000000008
I209
F370.72727272727275
tp1373
tp1374
Rp1375
s(g1
(g2
g3
Ntp1376
Rp1377
(g54
I01
tp1378
bg33
tp1379
g1
(g10
g11
(I0
F2.58
I1
F-342.0
tp1380
tp1381
Rp1382
s(g1
(g2
g3
Ntp1383
Rp1384
(g54
I00
tp1385
bg54
tp1386
g1
(g10
g11
(I37
F515.57
I85
F5.599999999999991
tp1387
tp1388
Rp1389
s(g1
(g2
g3
Ntp1390
Rp1391
(g54
I00
tp1392
bg8
tp1393
g1
(g10
g11
(I22
F759.3400000000004
I351
F-384.63817663817656
tp1394
tp1395
Rp1396
s(g1
(g2
g3
Ntp1397
Rp1398
(g6
I01
tp1399
bg6
tp1400
g1
(g10
g11
(I2
F137.95999999999998
I53
F-339.6981132075471
tp1401
tp1402
Rp1403
s(g1
(g2
g3
Ntp1404
Rp1405
(g6
I01
tp1406
bg25
tp1407
g1
(g10
g11
(I1
F37.32
I15
F-354.2666666666667
tp1408
tp1409
Rp1410
s(g1
(g2
g3
Ntp1411
Rp1412
(g8
I01
tp1413
bg54
tp1414
g1
(g10
g11
(I0
F32.120000000000005
I15
F-385.8666666666667
tp1415
tp1416
Rp1417
s(g1
(g2
g3
Ntp1418
Rp1419
(g54
I01
tp1420
bg6
tp1421
g1
(g10
g11
(I0
F8.16
I4
F-396.0
tp1422
tp1423
Rp1424
s(g1
(g2
g3
Ntp1425
Rp1426
(g8
I01
tp1427
bg25
tp1428
g1
(g10
g11
(I226
F2974.5399999999986
I839
F-246.00357568533943
tp1429
tp1430
Rp1431
s(g1
(g2
g3
Ntp1432
Rp1433
(g8
I01
tp1434
bg25
tp1435
g1
(g10
g11
(I3
F138.62000000000003
I95
F-458.31578947368416
tp1436
tp1437
Rp1438
s(g1
(g2
g3
Ntp1439
Rp1440
(g6
I00
tp1441
bg25
tp1442
g1
(g10
g11
(I2
F52.730000000000004
I19
F-327.42105263157885
tp1443
tp1444
Rp1445
s(g1
(g2
g3
Ntp1446
Rp1447
(g8
I00
tp1448
bg8
tp1449
g1
(g10
g11
(I67
F3015.0299999999997
I1239
F-358.1234866828084
tp1450
tp1451
Rp1452
s(g1
(g2
g3
Ntp1453
Rp1454
(g8
I00
tp1455
bg6
tp1456
g1
(g10
g11
(I33
F363.4000000000001
I45
F207.55555555555557
tp1457
tp1458
Rp1459
s(g1
(g2
g3
Ntp1460
Rp1461
(g54
I01
tp1462
bg25
tp1463
g1
(g10
g11
(I2
F45.999999999999986
I31
F-451.61290322580635
tp1464
tp1465
Rp1466
s(g1
(g2
g3
Ntp1467
Rp1468
(g54
I00
tp1469
bg54
tp1470
g1
(g10
g11
(I871
F10035.87999999999
I1569
F39.41810070108338
tp1471
tp1472
Rp1473
s(g1
(g2
g3
Ntp1474
Rp1475
(g8
I00
tp1476
bg25
tp1477
g1
(g10
g11
(I6
F346.3900000000001
I203
F-432.08866995073896
tp1478
tp1479
Rp1480
s(g1
(g2
g3
Ntp1481
Rp1482
(g8
I00
tp1483
bg33
tp1484
g1
(g10
g11
(I259
F2934.820000000001
I427
F87.06557377049177
tp1485
tp1486
Rp1487
s(g1
(g2
g3
Ntp1488
Rp1489
(g54
I00
tp1490
bg54
tp1491
g1
(g10
g11
(I11
F163.97999999999993
I51
F-279.843137254902
tp1492
tp1493
Rp1494
s(g1
(g2
g3
Ntp1495
Rp1496
(g54
I01
tp1497
bg8
tp1498
g1
(g10
g11
(I11
F468.42999999999995
I172
F-327.83720930232573
tp1499
tp1500
Rp1501
s(g1
(g2
g3
Ntp1502
Rp1503
(g54
I00
tp1504
bg6
tp1505
g1
(g10
g11
(I0
F28.67
I14
F-395.6428571428572
tp1506
tp1507
Rp1508
s(g1
(g2
g3
Ntp1509
Rp1510
(g8
I00
tp1511
bg6
tp1512
g1
(g10
g11
(I1
F55.0
I22
F-349.99999999999994
tp1513
tp1514
Rp1515
s(g1
(g2
g3
Ntp1516
Rp1517
(g8
I01
tp1518
bg8
tp1519
g1
(g10
g11
(I1
F28.62
I10
F-313.8
tp1520
tp1521
Rp1522
s(g1
(g2
g3
Ntp1523
Rp1524
(g54
I00
tp1525
bg54
tp1526
g1
(g10
g11
(I8
F91.44999999999999
I18
F-92.11111111111111
tp1527
tp1528
Rp1529
s(g1
(g2
g3
Ntp1530
Rp1531
(g8
I00
tp1532
bg25
tp1533
g1
(g10
g11
(I38
F1299.7100000000003
I873
F-452.22565864833894
tp1534
tp1535
Rp1536
s(g1
(g2
g3
Ntp1537
Rp1538
(g54
I00
tp1539
bg54
tp1540
g1
(g10
g11
(I302
F3470.1299999999987
I564
F14.801418439716391
tp1541
tp1542
Rp1543
s(g1
(g2
g3
Ntp1544
Rp1545
(g54
I00
tp1546
bg8
tp1547
g1
(g10
g11
(I3
F39.519999999999996
I13
F-295.99999999999994
tp1548
tp1549
Rp1550
s(g1
(g2
g3
Ntp1551
Rp1552
(g25
I00
tp1553
bg25
tp1554
g1
(g10
g11
(I0
F1.76
I8
F-585.75
tp1555
tp1556
Rp1557
s(g1
(g2
g3
Ntp1558
Rp1559
(g54
I00
tp1560
bg54
tp1561
g1
(g10
g11
(I386
F4276.720000000005
I509
F240.2102161100196
tp1562
tp1563
Rp1564
s(g1
(g2
g3
Ntp1565
Rp1566
(g25
I00
tp1567
bg25
tp1568
g1
(g10
g11
(I0
F4.6499999999999995
I4
F-483.75
tp1569
tp1570
Rp1571
s(g1
(g2
g3
Ntp1572
Rp1573
(g6
I00
tp1574
bg25
tp1575
g1
(g10
g11
(I8
F188.3400000000001
I140
F-466.22857142857174
tp1576
tp1577
Rp1578
s(g1
(g2
g3
Ntp1579
Rp1580
(g6
I00
tp1581
bg6
tp1582
g1
(g10
g11
(I1034
F11894.099999999984
I1949
F10.181631605951784
tp1583
tp1584
Rp1585
s(g1
(g2
g3
Ntp1586
Rp1587
(g54
I00
tp1588
bg8
tp1589
g1
(g10
g11
(I6
F102.66
I29
F-248.68965517241375
tp1590
tp1591
Rp1592
s(g1
(g2
g3
Ntp1593
Rp1594
(g6
I01
tp1595
bg8
tp1596
g1
(g10
g11
(I1
F18.96
I4
F-126.0
tp1597
tp1598
Rp1599
s(g1
(g2
g3
Ntp1600
Rp1601
(g25
I00
tp1602
bg6
tp1603
g1
(g10
g11
(I0
F5.25
I3
F-425.0
tp1604
tp1605
Rp1606
s(g1
(g2
g3
Ntp1607
Rp1608
(g8
I01
tp1609
bg33
tp1610
g1
(g10
g11
(I0
F327.7200000000001
I168
F-405.8511904761905
tp1611
tp1612
Rp1613
s(g1
(g2
g3
Ntp1614
Rp1615
(g6
I01
tp1616
bg33
tp1617
g1
(g10
g11
(I2
F28.749999999999996
I14
F-394.6428571428571
tp1618
tp1619
Rp1620
s(g1
(g2
g3
Ntp1621
Rp1622
(g6
I00
tp1623
bg33
tp1624
g1
(g10
g11
(I0
F10.6
I5
F-388.0
tp1625
tp1626
Rp1627
s(g1
(g2
g3
Ntp1628
Rp1629
(g54
I00
tp1630
bg6
tp1631
g1
(g10
g11
(I1
F13.33
I2
F66.5
tp1632
tp1633
Rp1634
s(g1
(g2
g3
Ntp1635
Rp1636
(g54
I00
tp1637
bg8
tp1638
g1
(g10
g11
(I25
F356.4200000000001
I149
F-361.51677852349013
tp1639
tp1640
Rp1641
s(g1
(g2
g3
Ntp1642
Rp1643
(g6
I01
tp1644
bg54
tp1645
g1
(g10
g11
(I0
F3.92
I5
F-521.6
tp1646
tp1647
Rp1648
s(g1
(g2
g3
Ntp1649
Rp1650
(g6
I00
tp1651
bg8
tp1652
g1
(g10
g11
(I3
F106.72000000000001
I37
F-311.5675675675676
tp1653
tp1654
Rp1655
s(g1
(g2
g3
Ntp1656
Rp1657
(g54
I00
tp1658
bg25
tp1659
g1
(g10
g11
(I1
F19.16
I7
F-326.2857142857143
tp1660
tp1661
Rp1662
s(g1
(g2
g3
Ntp1663
Rp1664
(g54
I00
tp1665
bg33
tp1666
g1
(g10
g11
(I2
F24.840000000000003
I6
F-193.66666666666666
tp1667
tp1668
Rp1669
s(g1
(g2
g3
Ntp1670
Rp1671
(g54
I00
tp1672
bg8
tp1673
g1
(g10
g11
(I1
F11.659999999999998
I7
F-436.57142857142856
tp1674
tp1675
Rp1676
s(g1
(g2
g3
Ntp1677
Rp1678
(g25
I00
tp1679
bg33
tp1680
g1
(g10
g11
(I1
F40.87
I37
F-490.3513513513514
tp1681
tp1682
Rp1683
s(g1
(g2
g3
Ntp1684
Rp1685
(g6
I01
tp1686
bg33
tp1687
g1
(g10
g11
(I0
F19.279999999999998
I26
F-526.3076923076924
tp1688
tp1689
Rp1690
s(g1
(g2
g3
Ntp1691
Rp1692
(g54
I00
tp1693
bg54
tp1694
g1
(g10
g11
(I4
F48.34
I9
F-68.0
tp1695
tp1696
Rp1697
s(g1
(g2
g3
Ntp1698
Rp1699
(g6
I00
tp1700
bg6
tp1701
g1
(g10
g11
(I3
F92.53
I34
F-327.85294117647055
tp1702
tp1703
Rp1704
s(g1
(g2
g3
Ntp1705
Rp1706
(g8
I01
tp1707
bg6
tp1708
g1
(g10
g11
(I4
F241.8
I99
F-356.2020202020203
tp1709
tp1710
Rp1711
s(g1
(g2
g3
Ntp1712
Rp1713
(g6
I00
tp1714
bg33
tp1715
g1
(g10
g11
(I0
F53.57000000000001
I28
F-410.25
tp1716
tp1717
Rp1718
s(g1
(g2
g3
Ntp1719
Rp1720
(g8
I01
tp1721
bg33
tp1722
g1
(g10
g11
(I28
F335.13
I72
F-134.54166666666654
tp1723
tp1724
Rp1725
s(g1
(g2
g3
Ntp1726
Rp1727
(g8
I01
tp1728
bg8
tp1729
g1
(g10
g11
(I45
F488.74000000000007
I46
F462.4782608695652
tp1730
tp1731
Rp1732
s(g1
(g2
g3
Ntp1733
Rp1734
(g6
I01
tp1735
bg6
tp1736
g1
(g10
g11
(I0
F25.720000000000002
I13
F-402.1538461538462
tp1737
tp1738
Rp1739
s(g1
(g2
g3
Ntp1740
Rp1741
(g8
I00
tp1742
bg54
tp1743
g1
(g10
g11
(I21
F810.7399999999997
I734
F-490.72343324250687
tp1744
tp1745
Rp1746
s(g1
(g2
g3
Ntp1747
Rp1748
(g6
I01
tp1749
bg25
tp1750
g1
(g10
g11
(I0
F89.31
I45
F-402.3999999999999
tp1751
tp1752
Rp1753
s(g1
(g2
g3
Ntp1754
Rp1755
(g8
I00
tp1756
bg8
tp1757
g1
(g10
g11
(I190
F2158.020000000002
I327
F59.513761467889786
tp1758
tp1759
Rp1760
s(g1
(g2
g3
Ntp1761
Rp1762
(g8
I00
tp1763
bg54
tp1764
g1
(g10
g11
(I3
F88.55999999999999
I27
F-271.9999999999999
tp1765
tp1766
Rp1767
s(g1
(g2
g3
Ntp1768
Rp1769
(g6
I01
tp1770
bg33
tp1771
g1
(g10
g11
(I1
F248.89000000000004
I146
F-433.1575342465757
tp1772
tp1773
Rp1774
s(g1
(g2
g3
Ntp1775
Rp1776
(g8
I01
tp1777
bg6
tp1778
g1
(g10
g11
(I0
F113.94999999999999
I48
F-364.68750000000017
tp1779
tp1780
Rp1781
s(g1
(g2
g3
Ntp1782
Rp1783
(g8
I00
tp1784
bg25
tp1785
g1
(g10
g11
(I0
F30.259999999999998
I34
F-511.5588235294118
tp1786
tp1787
Rp1788
s(g1
(g2
g3
Ntp1789
Rp1790
(g8
I00
tp1791
bg25
tp1792
g1
(g10
g11
(I13
F924.8100000000001
I457
F-399.46827133479206
tp1793
tp1794
Rp1795
s(g1
(g2
g3
Ntp1796
Rp1797
(g8
I01
tp1798
bg25
tp1799
g1
(g10
g11
(I20
F785.1200000000005
I460
F-430.1978260869565
tp1800
tp1801
Rp1802
s(g1
(g2
g3
Ntp1803
Rp1804
(g25
I01
tp1805
bg8
tp1806
g1
(g10
g11
(I0
F0.54
I2
F-573.0
tp1807
tp1808
Rp1809
s(g1
(g2
g3
Ntp1810
Rp1811
(g6
I01
tp1812
bg8
tp1813
g1
(g10
g11
(I18
F234.39
I72
F-274.45833333333326
tp1814
tp1815
Rp1816
s(g1
(g2
g3
Ntp1817
Rp1818
(g54
I00
tp1819
bg6
tp1820
g1
(g10
g11
(I6
F71.07
I17
F-181.9411764705882
tp1821
tp1822
Rp1823
s(g1
(g2
g3
Ntp1824
Rp1825
(g8
I01
tp1826
bg8
tp1827
g1
(g10
g11
(I4
F95.11
I63
F-449.0317460317458
tp1828
tp1829
Rp1830
s(g1
(g2
g3
Ntp1831
Rp1832
(g54
I01
tp1833
bg25
tp1834
g1
(g10
g11
(I6
F333.4300000000001
I139
F-361.0719424460431
tp1835
tp1836
Rp1837
s(g1
(g2
g3
Ntp1838
Rp1839
(g8
I00
tp1840
bg25
tp1841
g1
(g10
g11
(I3
F64.89000000000001
I20
F-279.99999999999994
tp1842
tp1843
Rp1844
s(g1
(g2
g3
Ntp1845
Rp1846
(g54
I00
tp1847
bg25
tp1848
g1
(g10
g11
(I26
F835.36
I376
F-379.7313829787234
tp1849
tp1850
Rp1851
s(g1
(g2
g3
Ntp1852
Rp1853
(g54
I00
tp1854
bg6
tp1855
g1
(g10
g11
(I42
F1093.9599999999998
I401
F-328.5162094763094
tp1856
tp1857
Rp1858
s(g1
(g2
g3
Ntp1859
Rp1860
(g8
I00
tp1861
bg33
tp1862
g1
(g10
g11
(I14
F191.03000000000003
I31
F15.61290322580646
tp1863
tp1864
Rp1865
s(g1
(g2
g3
Ntp1866
Rp1867
(g54
I01
tp1868
bg8
tp1869
g1
(g10
g11
(I139
F1694.7100000000016
I411
F-187.6715328467153
tp1870
tp1871
Rp1872
s(g1
(g2
g3
Ntp1873
Rp1874
(g8
I00
tp1875
bg8
tp1876
g1
(g10
g11
(I34
F439.86000000000007
I63
F96.69841269841264
tp1877
tp1878
Rp1879
s(g1
(g2
g3
Ntp1880
Rp1881
(g54
I01
tp1882
bg54
tp1883
g1
(g10
g11
(I0
F11.0
I4
F-325.0
tp1884
tp1885
Rp1886
s(g1
(g2
g3
Ntp1887
Rp1888
(g8
I01
tp1889
bg8
tp1890
g1
(g10
g11
(I9
F123.99000000000002
I42
F-304.78571428571433
tp1891
tp1892
Rp1893
s(g1
(g2
g3
Ntp1894
Rp1895
(g6
I00
tp1896
bg25
tp1897
g1
(g10
g11
(I1
F18.64
I8
F-368.25
tp1898
tp1899
Rp1900
s(g1
(g2
g3
Ntp1901
Rp1902
(g6
I01
tp1903
bg25
tp1904
g1
(g10
g11
(I0
F3.81
I5
F-523.8
tp1905
tp1906
Rp1907
s(g1
(g2
g3
Ntp1908
Rp1909
(g54
I01
tp1910
bg33
tp1911
g1
(g10
g11
(I7
F379.0
I151
F-349.72847682119175
tp1912
tp1913
Rp1914
s(g1
(g2
g3
Ntp1915
Rp1916
(g54
I01
tp1917
bg8
tp1918
g1
(g10
g11
(I0
F2.91
I1
F-309.0
tp1919
tp1920
Rp1921
s(g1
(g2
g3
Ntp1922
Rp1923
(g6
I00
tp1924
bg25
tp1925
g1
(g10
g11
(I1
F17.93
I6
F-301.1666666666667
tp1926
tp1927
Rp1928
s(g1
(g2
g3
Ntp1929
Rp1930
(g8
I01
tp1931
bg33
tp1932
g1
(g10
g11
(I0
F52.899999999999984
I48
F-490.39583333333326
tp1933
tp1934
Rp1935
s(g1
(g2
g3
Ntp1936
Rp1937
(g8
I00
tp1938
bg54
tp1939
g1
(g10
g11
(I1
F35.85999999999999
I37
F-503.86486486486496
tp1940
tp1941
Rp1942
s(g1
(g2
g3
Ntp1943
Rp1944
(g54
I00
tp1945
bg25
tp1946
g1
(g10
g11
(I0
F15.56
I15
F-496.2666666666667
tp1947
tp1948
Rp1949
s(g1
(g2
g3
Ntp1950
Rp1951
(g54
I01
tp1952
bg54
tp1953
g1
(g10
g11
(I0
F1.4700000000000002
I2
F-526.5
tp1954
tp1955
Rp1956
s(g1
(g2
g3
Ntp1957
Rp1958
(g6
I00
tp1959
bg6
tp1960
g1
(g10
g11
(I19
F305.75999999999993
I72
F-177.26388888888886
tp1961
tp1962
Rp1963
s(g1
(g2
g3
Ntp1964
Rp1965
(g8
I01
tp1966
bg6
tp1967
g1
(g10
g11
(I321
F4696.780000000004
I1082
F-166.2948243992601
tp1968
tp1969
Rp1970
s(g1
(g2
g3
Ntp1971
Rp1972
(g54
I00
tp1973
bg25
tp1974
g1
(g10
g11
(I273
F3141.4199999999987
I522
F1.5823754789269686
tp1975
tp1976
Rp1977
s(g1
(g2
g3
Ntp1978
Rp1979
(g54
I00
tp1980
bg25
tp1981
g1
(g10
g11
(I23
F751.5999999999999
I514
F-454.12840466926093
tp1982
tp1983
Rp1984
s(g1
(g2
g3
Ntp1985
Rp1986
(g54
I00
tp1987
bg33
tp1988
g1
(g10
g11
(I5
F70.47
I24
F-308.87500000000006
tp1989
tp1990
Rp1991
s(g1
(g2
g3
Ntp1992
Rp1993
(g8
I00
tp1994
bg33
tp1995
g1
(g10
g11
(I638
F8596.039999999999
I2475
F-252.94101010100906
tp1996
tp1997
Rp1998
s(g1
(g2
g3
Ntp1999
Rp2000
(g25
I01
tp2001
bg25
tp2002
g1
(g10
g11
(I1
F21.179999999999996
I12
F-423.5
tp2003
tp2004
Rp2005
s(g1
(g2
g3
Ntp2006
Rp2007
(g8
I00
tp2008
bg6
tp2009
g1
(g10
g11
(I1
F14.31
I4
F-242.25
tp2010
tp2011
Rp2012
s(g1
(g2
g3
Ntp2013
Rp2014
(g6
I00
tp2015
bg54
tp2016
g1
(g10
g11
(I5
F55.62
I20
F-325.0
tp2017
tp2018
Rp2019
s(g1
(g2
g3
Ntp2020
Rp2021
(g6
I00
tp2022
bg33
tp2023
g1
(g10
g11
(I1
F19.040000000000003
I7
F-334.57142857142856
tp2024
tp2025
Rp2026
s(g1
(g2
g3
Ntp2027
Rp2028
(g25
I00
tp2029
bg8
tp2030
g1
(g10
g11
(I0
F0.74
I4
F-597.0
tp2031
tp2032
Rp2033
s(g1
(g2
g3
Ntp2034
Rp2035
(g6
I01
tp2036
bg54
tp2037
g1
(g10
g11
(I15
F968.8500000000003
I1054
F-508.92409867172614
tp2038
tp2039
Rp2040
s(g1
(g2
g3
Ntp2041
Rp2042
(g6
I00
tp2043
bg54
tp2044
g1
(g10
g11
(I3
F80.61
I21
F-216.14285714285708
tp2045
tp2046
Rp2047
s(g1
(g2
g3
Ntp2048
Rp2049
(g54
I00
tp2050
bg25
tp2051
g1
(g10
g11
(I0
F12.96
I16
F-522.75
tp2052
tp2053
Rp2054
s(g1
(g2
g3
Ntp2055
Rp2056
(g54
I00
tp2057
bg25
tp2058
g1
(g10
g11
(I2
F34.46
I19
F-426.6842105263157
tp2059
tp2060
Rp2061
s(g1
(g2
g3
Ntp2062
Rp2063
(g8
I01
tp2064
bg54
tp2065
g1
(g10
g11
(I12
F146.30999999999995
I36
F-193.58333333333343
tp2066
tp2067
Rp2068
s(g1
(g2
g3
Ntp2069
Rp2070
(g54
I00
tp2071
bg25
tp2072
g1
(g10
g11
(I0
F14.2
I6
F-363.3333333333333
tp2073
tp2074
Rp2075
s(g1
(g2
g3
Ntp2076
Rp2077
(g8
I01
tp2078
bg6
tp2079
g1
(g10
g11
(I0
F301.9100000000001
I167
F-420.72455089820374
tp2080
tp2081
Rp2082
s(g1
(g2
g3
Ntp2083
Rp2084
(g6
I01
tp2085
bg6
tp2086
g1
(g10
g11
(I1
F17.05
I12
F-457.91666666666663
tp2087
tp2088
Rp2089
s(g1
(g2
g3
Ntp2090
Rp2091
(g54
I01
tp2092
bg54
tp2093
g1
(g10
g11
(I6
F388.6
I145
F-332.58620689655186
tp2094
tp2095
Rp2096
s(g1
(g2
g3
Ntp2097
Rp2098
(g54
I00
tp2099
bg54
tp2100
g1
(g10
g11
(I1
F60.61
I26
F-367.1153846153846
tp2101
tp2102
Rp2103
s(g1
(g2
g3
Ntp2104
Rp2105
(g8
I00
tp2106
bg6
tp2107
g1
(g10
g11
(I0
F3.49
I5
F-530.2
tp2108
tp2109
Rp2110
s(g1
(g2
g3
Ntp2111
Rp2112
(g8
I00
tp2113
bg8
tp2114
g1
(g10
g11
(I11
F140.79999999999995
I37
F-222.972972972973
tp2115
tp2116
Rp2117
s(g1
(g2
g3
Ntp2118
Rp2119
(g6
I00
tp2120
bg25
tp2121
g1
(g10
g11
(I2
F83.39000000000003
I34
F-354.73529411764713
tp2122
tp2123
Rp2124
s(g1
(g2
g3
Ntp2125
Rp2126
(g8
I00
tp2127
bg25
tp2128
g1
(g10
g11
(I1
F33.23
I30
F-489.23333333333335
tp2129
tp2130
Rp2131
s(g1
(g2
g3
Ntp2132
Rp2133
(g8
I00
tp2134
bg25
tp2135
g1
(g10
g11
(I13
F396.14000000000016
I316
F-475.73101265822777
tp2136
tp2137
Rp2138
s(g1
(g2
g3
Ntp2139
Rp2140
(g54
I00
tp2141
bg54
tp2142
g1
(g10
g11
(I44
F1589.7699999999986
I741
F-387.21322537111996
tp2143
tp2144
Rp2145
s(g1
(g2
g3
Ntp2146
Rp2147
(g8
I01
tp2148
bg6
tp2149
g1
(g10
g11
(I0
F14.02
I14
F-510.71428571428567
tp2150
tp2151
Rp2152
s(g1
(g2
g3
Ntp2153
Rp2154
(g6
I01
tp2155
bg6
tp2156
g1
(g10
g11
(I0
F5.17
I2
F-341.5
tp2157
tp2158
Rp2159
s(g1
(g2
g3
Ntp2160
Rp2161
(g8
I00
tp2162
bg54
tp2163
g1
(g10
g11
(I1
F18.88
I7
F-330.28571428571433
tp2164
tp2165
Rp2166
s(g1
(g2
g3
Ntp2167
Rp2168
(g8
I01
tp2169
bg6
tp2170
g1
(g10
g11
(I0
F5.13
I2
F-343.5
tp2171
tp2172
Rp2173
s(g1
(g2
g3
Ntp2174
Rp2175
(g54
I00
tp2176
bg33
tp2177
g1
(g10
g11
(I10
F200.67999999999998
I125
F-440.296
tp2178
tp2179
Rp2180
s(g1
(g2
g3
Ntp2181
Rp2182
(g54
I00
tp2183
bg8
tp2184
g1
(g10
g11
(I40
F1840.0799999999977
I758
F-358.3364116094989
tp2185
tp2186
Rp2187
s(g1
(g2
g3
Ntp2188
Rp2189
(g54
I00
tp2190
bg33
tp2191
g1
(g10
g11
(I0
F11.94
I5
F-361.20000000000005
tp2192
tp2193
Rp2194
s(g1
(g2
g3
Ntp2195
Rp2196
(g8
I00
tp2197
bg6
tp2198
g1
(g10
g11
(I22
F1206.8499999999997
I529
F-373.14555765595463
tp2199
tp2200
Rp2201
s(g1
(g2
g3
Ntp2202
Rp2203
(g54
I00
tp2204
bg8
tp2205
g1
(g10
g11
(I22
F242.89999999999995
I36
F74.50000000000004
tp2206
tp2207
Rp2208
s(g1
(g2
g3
Ntp2209
Rp2210
(g8
I01
tp2211
bg33
tp2212
g1
(g10
g11
(I14
F436.53999999999985
I145
F-299.92413793103464
tp2213
tp2214
Rp2215
s(g1
(g2
g3
Ntp2216
Rp2217
(g6
I00
tp2218
bg25
tp2219
g1
(g10
g11
(I9
F296.59999999999997
I176
F-434.5227272727273
tp2220
tp2221
Rp2222
s(g1
(g2
g3
Ntp2223
Rp2224
(g25
I01
tp2225
bg6
tp2226
g1
(g10
g11
(I0
F0.0
I1
F-608.0
tp2227
tp2228
Rp2229
s(g1
(g2
g3
Ntp2230
Rp2231
(g6
I01
tp2232
bg54
tp2233
g1
(g10
g11
(I4
F133.15000000000003
I61
F-384.21311475409834
tp2234
tp2235
Rp2236
s(g1
(g2
g3
Ntp2237
Rp2238
(g6
I00
tp2239
bg6
tp2240
g1
(g10
g11
(I12
F142.20000000000005
I47
F-298.93617021276594
tp2241
tp2242
Rp2243
s(g1
(g2
g3
Ntp2244
Rp2245
(g54
I00
tp2246
bg33
tp2247
g1
(g10
g11
(I3
F167.95999999999987
I126
F-467.40476190476227
tp2248
tp2249
Rp2250
s(g1
(g2
g3
Ntp2251
Rp2252
(g54
I01
tp2253
bg6
tp2254
g1
(g10
g11
(I0
F0.6
I1
F-540.0
tp2255
tp2256
Rp2257
s(g1
(g2
g3
Ntp2258
Rp2259
(g8
I00
tp2260
bg33
tp2261
g1
(g10
g11
(I12
F134.54
I19
F108.10526315789474
tp2262
tp2263
Rp2264
s(g1
(g2
g3
Ntp2265
Rp2266
(g6
I01
tp2267
bg33
tp2268
g1
(g10
g11
(I0
F19.47
I13
F-453.92307692307685
tp2269
tp2270
Rp2271
s(g1
(g2
g3
Ntp2272
Rp2273
(g54
I01
tp2274
bg33
tp2275
g1
(g10
g11
(I0
F12.25
I5
F-355.0
tp2276
tp2277
Rp2278
s(g1
(g2
g3
Ntp2279
Rp2280
(g6
I00
tp2281
bg8
tp2282
g1
(g10
g11
(I5
F64.98
I26
F-351.7692307692308
tp2283
tp2284
Rp2285
s(g1
(g2
g3
Ntp2286
Rp2287
(g6
I01
tp2288
bg6
tp2289
g1
(g10
g11
(I1
F283.82000000000005
I146
F-407.0205479452057
tp2290
tp2291
Rp2292
s(g1
(g2
g3
Ntp2293
Rp2294
(g8
I01
tp2295
bg33
tp2296
g1
(g10
g11
(I1
F43.75000000000001
I17
F-345.1176470588236
tp2297
tp2298
Rp2299
s(g1
(g2
g3
Ntp2300
Rp2301
(g54
I01
tp2302
bg54
tp2303
g1
(g10
g11
(I0
F47.150000000000006
I65
F-527.9230769230768
tp2304
tp2305
Rp2306
s(g1
(g2
g3
Ntp2307
Rp2308
(g6
I00
tp2309
bg8
tp2310
g1
(g10
g11
(I2
F31.520000000000003
I9
F-253.44444444444443
tp2311
tp2312
Rp2313
s(g1
(g2
g3
Ntp2314
Rp2315
(g8
I01
tp2316
bg33
tp2317
g1
(g10
g11
(I0
F5.13
I2
F-343.5
tp2318
tp2319
Rp2320
s(g1
(g2
g3
Ntp2321
Rp2322
(g8
I01
tp2323
bg33
tp2324
g1
(g10
g11
(I0
F2.74
I1
F-326.0
tp2325
tp2326
Rp2327
s(g1
(g2
g3
Ntp2328
Rp2329
(g8
I00
tp2330
bg8
tp2331
g1
(g10
g11
(I291
F3310.570000000003
I496
F67.45362903225809
tp2332
tp2333
Rp2334
s(g1
(g2
g3
Ntp2335
Rp2336
(g54
I01
tp2337
bg8
tp2338
g1
(g10
g11
(I0
F1.96
I3
F-534.6666666666666
tp2339
tp2340
Rp2341
s(g1
(g2
g3
Ntp2342
Rp2343
(g8
I01
tp2344
bg8
tp2345
g1
(g10
g11
(I5
F324.34
I108
F-299.6851851851853
tp2346
tp2347
Rp2348
s(g1
(g2
g3
Ntp2349
Rp2350
(g54
I01
tp2351
bg8
tp2352
g1
(g10
g11
(I40
F465.8300000000001
I94
F-104.43617021276606
tp2353
tp2354
Rp2355
s(g1
(g2
g3
Ntp2356
Rp2357
(g54
I00
tp2358
bg8
tp2359
g1
(g10
g11
(I0
F8.34
I4
F-391.5
tp2360
tp2361
Rp2362
s(g1
(g2
g3
Ntp2363
Rp2364
(g8
I00
tp2365
bg33
tp2366
g1
(g10
g11
(I38
F1648.799999999998
I652
F-348.0122699386505
tp2367
tp2368
Rp2369
s(g1
(g2
g3
Ntp2370
Rp2371
(g54
I00
tp2372
bg54
tp2373
g1
(g10
g11
(I2
F27.59
I5
F-48.2
tp2374
tp2375
Rp2376
s(g1
(g2
g3
Ntp2377
Rp2378
(g8
I00
tp2379
bg33
tp2380
g1
(g10
g11
(I88
F1426.9899999999989
I730
F-404.93150684931527
tp2381
tp2382
Rp2383
s(g1
(g2
g3
Ntp2384
Rp2385
(g6
I00
tp2386
bg33
tp2387
g1
(g10
g11
(I5
F59.85
I25
F-361.64000000000004
tp2388
tp2389
Rp2390
s(g1
(g2
g3
Ntp2391
Rp2392
(g6
I00
tp2393
bg54
tp2394
g1
(g10
g11
(I9
F125.46000000000001
I53
F-364.4339622641509
tp2395
tp2396
Rp2397
s(g1
(g2
g3
Ntp2398
Rp2399
(g54
I00
tp2400
bg6
tp2401
g1
(g10
g11
(I3
F34.98
I9
F-211.66666666666666
tp2402
tp2403
Rp2404
s(g1
(g2
g3
Ntp2405
Rp2406
(g54
I00
tp2407
bg6
tp2408
g1
(g10
g11
(I639
F7156.890000000007
I1001
F114.92907092907093
tp2409
tp2410
Rp2411
s(g1
(g2
g3
Ntp2412
Rp2413
(g54
I01
tp2414
bg54
tp2415
g1
(g10
g11
(I14
F231.67000000000013
I117
F-402.09401709401703
tp2416
tp2417
Rp2418
s(g1
(g2
g3
Ntp2419
Rp2420
(g25
I01
tp2421
bg25
tp2422
g1
(g10
g11
(I0
F2.7399999999999998
I3
F-508.66666666666663
tp2423
tp2424
Rp2425
s(g1
(g2
g3
Ntp2426
Rp2427
(g8
I00
tp2428
bg8
tp2429
g1
(g10
g11
(I88
F952.4499999999996
I91
F446.64835164835154
tp2430
tp2431
Rp2432
s(g1
(g2
g3
Ntp2433
Rp2434
(g6
I00
tp2435
bg8
tp2436
g1
(g10
g11
(I1
F15.8
I5
F-284.0
tp2437
tp2438
Rp2439
s(g1
(g2
g3
Ntp2440
Rp2441
(g6
I00
tp2442
bg33
tp2443
g1
(g10
g11
(I17
F223.21000000000006
I72
F-289.9861111111112
tp2444
tp2445
Rp2446
s(g1
(g2
g3
Ntp2447
Rp2448
(g8
I00
tp2449
bg33
tp2450
g1
(g10
g11
(I3
F80.82
I28
F-313.49999999999994
tp2451
tp2452
Rp2453
s(g1
(g2
g3
Ntp2454
Rp2455
(g6
I01
tp2456
bg54
tp2457
g1
(g10
g11
(I1
F15.59
I3
F-80.33333333333333
tp2458
tp2459
Rp2460
s(g1
(g2
g3
Ntp2461
Rp2462
(g8
I01
tp2463
bg8
tp2464
g1
(g10
g11
(I10
F108.60000000000002
I10
F486.0
tp2465
tp2466
Rp2467
s(g1
(g2
g3
Ntp2468
Rp2469
(g6
I00
tp2470
bg6
tp2471
g1
(g10
g11
(I9
F103.09999999999998
I20
F-85.4
tp2472
tp2473
Rp2474
s(g1
(g2
g3
Ntp2475
Rp2476
(g54
I00
tp2477
bg33
tp2478
g1
(g10
g11
(I2
F59.389999999999986
I21
F-319.3809523809524
tp2479
tp2480
Rp2481
s(g1
(g2
g3
Ntp2482
Rp2483
(g8
I00
tp2484
bg6
tp2485
g1
(g10
g11
(I3
F80.57000000000001
I32
F-350.56250000000006
tp2486
tp2487
Rp2488
s(g1
(g2
g3
Ntp2489
Rp2490
(g8
I01
tp2491
bg54
tp2492
g1
(g10
g11
(I0
F46.46
I48
F-503.20833333333337
tp2493
tp2494
Rp2495
s(g1
(g2
g3
Ntp2496
Rp2497
(g54
I00
tp2498
bg8
tp2499
g1
(g10
g11
(I2
F25.849999999999998
I11
F-365.7272727272727
tp2500
tp2501
Rp2502
s(g1
(g2
g3
Ntp2503
Rp2504
(g25
I00
tp2505
bg6
tp2506
g1
(g10
g11
(I1
F38.32999999999999
I37
F-498.8918918918918
tp2507
tp2508
Rp2509
s(g1
(g2
g3
Ntp2510
Rp2511
(g8
I00
tp2512
bg8
tp2513
g1
(g10
g11
(I935
F10499.739999999987
I1417
F140.9449541284404
tp2514
tp2515
Rp2516
s(g1
(g2
g3
Ntp2517
Rp2518
(g25
I00
tp2519
bg6
tp2520
g1
(g10
g11
(I0
F5.6000000000000005
I5
F-488.0
tp2521
tp2522
Rp2523
s(g1
(g2
g3
Ntp2524
Rp2525
(g6
I00
tp2526
bg6
tp2527
g1
(g10
g11
(I3
F48.86000000000001
I12
F-192.83333333333331
tp2528
tp2529
Rp2530
s(g1
(g2
g3
Ntp2531
Rp2532
(g54
I00
tp2533
bg8
tp2534
g1
(g10
g11
(I66
F773.3699999999999
I156
F-104.28205128205143
tp2535
tp2536
Rp2537
s(g1
(g2
g3
Ntp2538
Rp2539
(g8
I00
tp2540
bg6
tp2541
g1
(g10
g11
(I0
F14.92
I6
F-351.33333333333337
tp2542
tp2543
Rp2544
s(g1
(g2
g3
Ntp2545
Rp2546
(g8
I01
tp2547
bg6
tp2548
g1
(g10
g11
(I0
F19.430000000000003
I8
F-357.125
tp2549
tp2550
Rp2551
s(g1
(g2
g3
Ntp2552
Rp2553
(g25
I00
tp2554
bg25
tp2555
g1
(g10
g11
(I1143
F20199.769999999975
I9033
F-376.74416030111837
tp2556
tp2557
Rp2558
s(g1
(g2
g3
Ntp2559
Rp2560
(g8
I00
tp2561
bg25
tp2562
g1
(g10
g11
(I0
F21.660000000000004
I10
F-383.4
tp2563
tp2564
Rp2565
s(g1
(g2
g3
Ntp2566
Rp2567
(g6
I01
tp2568
bg33
tp2569
g1
(g10
g11
(I0
F4.76
I2
F-362.0
tp2570
tp2571
Rp2572
s(g1
(g2
g3
Ntp2573
Rp2574
(g6
I01
tp2575
bg33
tp2576
g1
(g10
g11
(I5
F58.97
I12
F-108.58333333333333
tp2577
tp2578
Rp2579
s(g1
(g2
g3
Ntp2580
Rp2581
(g8
I00
tp2582
bg54
tp2583
g1
(g10
g11
(I15
F223.77000000000004
I99
F-374.050505050505
tp2584
tp2585
Rp2586
s(g1
(g2
g3
Ntp2587
Rp2588
(g6
I00
tp2589
bg8
tp2590
g1
(g10
g11
(I11
F170.41999999999996
I42
F-196.0238095238095
tp2591
tp2592
Rp2593
s(g1
(g2
g3
Ntp2594
Rp2595
(g8
I01
tp2596
bg54
tp2597
g1
(g10
g11
(I1
F159.57999999999996
I89
F-422.8876404494382
tp2598
tp2599
Rp2600
s(g1
(g2
g3
Ntp2601
Rp2602
(g8
I01
tp2603
bg8
tp2604
g1
(g10
g11
(I0
F12.76
I14
F-508.8571428571429
tp2605
tp2606
Rp2607
s(g1
(g2
g3
Ntp2608
Rp2609
(g6
I00
tp2610
bg54
tp2611
g1
(g10
g11
(I7
F109.50000000000001
I29
F-225.1379310344828
tp2612
tp2613
Rp2614
s.