(dp0
(ccopy_reg
_reconstructor
p1
(cfeatureBasedGameState
FeatureBasedGameState
p2
c__builtin__
object
p3
Ntp4
Rp5
(S'West'
p6
I01
tp7
bg6
tp8
g1
(cmodel
ModelEntry
p9
c__builtin__
tuple
p10
(I7
F230.13999999999996
I126
F-417.3492063492066
tp11
tp12
Rp13
s(g1
(g2
g3
Ntp14
Rp15
(S'East'
p16
I01
tp17
bS'Stop'
p18
tp19
g1
(g9
g10
(I4
F163.27
I9
F1214.111111111111
tp20
tp21
Rp22
s(g1
(g2
g3
Ntp23
Rp24
(S'North'
p25
I00
tp26
bg25
tp27
g1
(g9
g10
(I7323
F83720.70000000033
I8751
F356.6986630099412
tp28
tp29
Rp30
s(g1
(g2
g3
Ntp31
Rp32
(g6
I01
tp33
bg18
tp34
g1
(g9
g10
(I4
F154.54
I114
F-464.4385964912282
tp35
tp36
Rp37
s(g1
(g2
g3
Ntp38
Rp39
(g6
I00
tp40
bS'South'
p41
tp42
g1
(g9
g10
(I4
F226.32999999999996
I184
F-476.99456521739154
tp43
tp44
Rp45
s(g1
(g2
g3
Ntp46
Rp47
(g25
I00
tp48
bg16
tp49
g1
(g9
g10
(I34
F614.8300000000005
I266
F-368.86090225563936
tp50
tp51
Rp52
s(g1
(g2
g3
Ntp53
Rp54
(g16
I01
tp55
bg6
tp56
g1
(g9
g10
(I0
F1.03
I1
F-497.0
tp57
tp58
Rp59
s(g1
(g2
g3
Ntp60
Rp61
(g6
I01
tp62
bg25
tp63
g1
(g9
g10
(I9
F193.8000000000001
I107
F-418.87850467289707
tp64
tp65
Rp66
s(g1
(g2
g3
Ntp67
Rp68
(g25
I01
tp69
bg25
tp70
g1
(g9
g10
(I0
F216.27999999999994
I225
F-503.87555555555537
tp71
tp72
Rp73
s(g1
(g2
g3
Ntp74
Rp75
(g25
I01
tp76
bg41
tp77
g1
(g9
g10
(I1255
F14494.700000000137
I1577
F319.131261889663
tp78
tp79
Rp80
s(g1
(g2
g3
Ntp81
Rp82
(g41
I01
tp83
bg6
tp84
g1
(g9
g10
(I608
F6826.189999999981
I624
F493.9407051282054
tp85
tp86
Rp87
s(g1
(g2
g3
Ntp88
Rp89
(g25
I00
tp90
bg6
tp91
g1
(g9
g10
(I4
F882.6700000000053
I853
F-496.52168815943816
tp92
tp93
Rp94
s(g1
(g2
g3
Ntp95
Rp96
(g41
I00
tp97
bg18
tp98
g1
(g9
g10
(I7
F100.11000000000001
I27
F-229.22222222222217
tp99
tp100
Rp101
s(g1
(g2
g3
Ntp102
Rp103
(g25
I01
tp104
bg18
tp105
g1
(g9
g10
(I10
F388.2900000000005
I302
F-471.42715231788077
tp106
tp107
Rp108
s(g1
(g2
g3
Ntp109
Rp110
(g41
I01
tp111
bg16
tp112
g1
(g9
g10
(I1324
F14917.170000000062
I1361
F496.04481998530485
tp113
tp114
Rp115
s(g1
(g2
g3
Ntp116
Rp117
(g6
I00
tp118
bg25
tp119
g1
(g9
g10
(I3
F200.38000000000002
I177
F-486.7909604519776
tp120
tp121
Rp122
s(g1
(g2
g3
Ntp123
Rp124
(g41
I00
tp125
bg41
tp126
g1
(g9
g10
(I6064
F68278.93999999767
I6125
F514.7582040816311
tp127
tp128
Rp129
s(g1
(g2
g3
Ntp130
Rp131
(g41
I00
tp132
bg25
tp133
g1
(g9
g10
(I13
F170.0
I36
F-127.77777777777781
tp134
tp135
Rp136
s(g1
(g2
g3
Ntp137
Rp138
(g6
I00
tp139
bg6
tp140
g1
(g9
g10
(I7323
F82800.96000000015
I7806
F460.734819369714
tp141
tp142
Rp143
s(g1
(g2
g3
Ntp144
Rp145
(g16
I01
tp146
bg41
tp147
g1
(g9
g10
(I1
F13.090000000000002
I3
F-163.66666666666669
tp148
tp149
Rp150
s(g1
(g2
g3
Ntp151
Rp152
(g16
I00
tp153
bg18
tp154
g1
(g9
g10
(I1
F17.08
I7
F-356.0
tp155
tp156
Rp157
s(g1
(g2
g3
Ntp158
Rp159
(g6
I00
tp160
bg18
tp161
g1
(g9
g10
(I20
F478.98999999999995
I277
F-427.0794223826713
tp162
tp163
Rp164
s(g1
(g2
g3
Ntp165
Rp166
(g41
I00
tp167
bg16
tp168
g1
(g9
g10
(I16
F205.53
I40
F-86.17499999999997
tp169
tp170
Rp171
s(g1
(g2
g3
Ntp172
Rp173
(g16
I00
tp174
bg6
tp175
g1
(g9
g10
(I1
F18.17
I8
F-372.875
tp176
tp177
Rp178
s(g1
(g2
g3
Ntp179
Rp180
(g6
I00
tp181
bg16
tp182
g1
(g9
g10
(I3
F200.38000000000002
I177
F-486.7909604519776
tp183
tp184
Rp185
s(g1
(g2
g3
Ntp186
Rp187
(g41
I01
tp188
bg25
tp189
g1
(g9
g10
(I682
F7674.36999999993
I704
F490.1093750000006
tp190
tp191
Rp192
s(g1
(g2
g3
Ntp193
Rp194
(g6
I01
tp195
bg41
tp196
g1
(g9
g10
(I2373
F26829.700000000725
I2570
F443.95719844357995
tp197
tp198
Rp199
s(g1
(g2
g3
Ntp200
Rp201
(g41
I00
tp202
bg6
tp203
g1
(g9
g10
(I10
F135.76
I32
F-175.75000000000006
tp204
tp205
Rp206
s(g1
(g2
g3
Ntp207
Rp208
(g16
I00
tp209
bg16
tp210
g1
(g9
g10
(I7
F239.79999999999998
I29
F226.89655172413796
tp211
tp212
Rp213
s(g1
(g2
g3
Ntp214
Rp215
(g41
I01
tp216
bg41
tp217
g1
(g9
g10
(I1
F24.89
I14
F-422.2142857142858
tp218
tp219
Rp220
s(g1
(g2
g3
Ntp221
Rp222
(g25
I01
tp223
bg6
tp224
g1
(g9
g10
(I65
F1005.6699999999996
I343
F-306.80174927113706
tp225
tp226
Rp227
s(g1
(g2
g3
Ntp228
Rp229
(g25
I00
tp230
bg18
tp231
g1
(g9
g10
(I14
F1089.0100000000027
I984
F-489.3282520325199
tp232
tp233
Rp234
s(g1
(g2
g3
Ntp235
Rp236
(g41
I01
tp237
bg18
tp238
g1
(g9
g10
(I3
F48.050000000000004
I17
F-317.3529411764705
tp239
tp240
Rp241
s(g1
(g2
g3
Ntp242
Rp243
(g25
I01
tp244
bg16
tp245
g1
(g9
g10
(I1689
F19157.290000000437
I1884
F416.84129511677247
tp246
tp247
Rp248
s(g1
(g2
g3
Ntp249
Rp250
(g6
I01
tp251
bg16
tp252
g1
(g9
g10
(I19
F425.2
I139
F-294.1007194244607
tp253
tp254
Rp255
s(g1
(g2
g3
Ntp256
Rp257
(g16
I00
tp258
bg41
tp259
g1
(g9
g10
(I1
F17.639999999999997
I8
F-379.5
tp260
tp261
Rp262
s(g1
(g2
g3
Ntp263
Rp264
(g25
I00
tp265
bg41
tp266
g1
(g9
g10
(I20
F1160.7500000000043
I997
F-483.57572718154466
tp267
tp268
Rp269
s(g1
(g2
g3
Ntp270
Rp271
(g16
I01
tp272
bg16
tp273
g1
(g9
g10
(I1
F12.32
I2
F16.0
tp274
tp275
Rp276
s.