(dp0
(ccopy_reg
_reconstructor
p1
(cfeatureBasedGameState
FeatureBasedGameState
p2
c__builtin__
object
p3
Ntp4
Rp5
(S'North'
p6
I00
S'East'
p7
I00
NNI00
tp8
bS'West'
p9
tp10
g1
(cmodel
ModelEntry
p11
c__builtin__
tuple
p12
(I1
F2738.8500000000045
I1885
F-455.8694960212178
tp13
tp14
Rp15
s(g1
(g2
g3
Ntp16
Rp17
(S'South'
p18
I00
S'East'
p19
I01
g18
I00
I00
tp20
bS'Stop'
p21
tp22
g1
(g11
g12
(I0
F10.399999999999999
I2
F-80.0
tp23
tp24
Rp25
s(g1
(g2
g3
Ntp26
Rp27
(g6
I01
g6
I01
NNI00
tp28
bg9
tp29
g1
(g11
g12
(I1
F1413.0399999999988
I1017
F-462.28908554572257
tp30
tp31
Rp32
s(g1
(g2
g3
Ntp33
Rp34
(S'West'
p35
I01
g18
I00
g35
I01
I00
tp36
bg21
tp37
g1
(g11
g12
(I0
F2.55
I1
F-345.0
tp38
tp39
Rp40
s(g1
(g2
g3
Ntp41
Rp42
(S'North'
p43
I01
S'South'
p44
I00
NNI00
tp45
bg43
tp46
g1
(g11
g12
(I0
F132.91999999999996
I95
F-460.0842105263158
tp47
tp48
Rp49
s(g1
(g2
g3
Ntp50
Rp51
(g19
I01
g19
I01
g35
I00
I00
tp52
bg35
tp53
g1
(g11
g12
(I0
F4.82
I1
F-118.0
tp54
tp55
Rp56
s(g1
(g2
g3
Ntp57
Rp58
(g43
I00
g43
I00
g43
I00
I00
tp59
bg44
tp60
g1
(g11
g12
(I1
F1052.4599999999996
I396
F-335.6919191919193
tp61
tp62
Rp63
s(g1
(g2
g3
Ntp64
Rp65
(S'North'
p66
I00
g66
I00
S'West'
p67
I00
I00
tp68
bg67
tp69
g1
(g11
g12
(I0
F402.46999999999997
I128
F-285.57031250000034
tp70
tp71
Rp72
s(g1
(g2
g3
Ntp73
Rp74
(g6
I00
g7
I01
NNI00
tp75
bg7
tp76
g1
(g11
g12
(I0
F167.21999999999997
I103
F-437.6504854368932
tp77
tp78
Rp79
s(g1
(g2
g3
Ntp80
Rp81
(S'East'
p82
I00
g82
I00
NNI00
tp83
bS'Stop'
p84
tp85
g1
(g11
g12
(I0
F634.67
I466
F-463.9721030042921
tp86
tp87
Rp88
s(g1
(g2
g3
Ntp89
Rp90
(g18
I01
S'North'
p91
I00
g35
I00
I00
tp92
bg19
tp93
g1
(g11
g12
(I0
F31.6
I9
F-248.88888888888889
tp94
tp95
Rp96
s(g1
(g2
g3
Ntp97
Rp98
(g91
I01
g19
I01
NNI00
tp99
bg21
tp100
g1
(g11
g12
(I0
F71.09
I40
F-422.275
tp101
tp102
Rp103
s(g1
(g2
g3
Ntp104
Rp105
(g19
I00
NNg91
I01
I01
tp106
bg21
tp107
g1
(g11
g12
(I0
F5.07
I1
F-93.0
tp108
tp109
Rp110
s(g1
(g2
g3
Ntp111
Rp112
(g19
I00
g91
I00
g18
I00
I01
tp113
bg21
tp114
g1
(g11
g12
(I0
F26.04
I8
F-274.49999999999994
tp115
tp116
Rp117
s(g1
(g2
g3
Ntp118
Rp119
(g18
I01
g35
I01
g91
I00
I00
tp120
bg18
tp121
g1
(g11
g12
(I0
F3.27
I1
F-273.0
tp122
tp123
Rp124
s(g1
(g2
g3
Ntp125
Rp126
(g19
I00
g19
I00
g91
I00
I00
tp127
bg18
tp128
g1
(g11
g12
(I1
F45.550000000000004
I12
F-220.41666666666666
tp129
tp130
Rp131
s(g1
(g2
g3
Ntp132
Rp133
(g91
I01
g91
I01
g91
I01
I00
tp134
bg19
tp135
g1
(g11
g12
(I0
F52.870000000000005
I18
F-306.2777777777777
tp136
tp137
Rp138
s(g1
(g2
g3
Ntp139
Rp140
(S'East'
p141
I00
NNS'West'
p142
I01
I00
tp143
bg142
tp144
g1
(g11
g12
(I0
F3.15
I1
F-285.0
tp145
tp146
Rp147
s(g1
(g2
g3
Ntp148
Rp149
(g9
I01
g7
I00
NNI00
tp150
bS'Stop'
p151
tp152
g1
(g11
g12
(I0
F166.08999999999992
I120
F-464.9583333333333
tp153
tp154
Rp155
s(g1
(g2
g3
Ntp156
Rp157
(g18
I01
g18
I01
g35
I00
I00
tp158
bg18
tp159
g1
(g11
g12
(I0
F10.93
I3
F-235.66666666666666
tp160
tp161
Rp162
s(g1
(g2
g3
Ntp163
Rp164
(g6
I01
NNNNI00
tp165
bg9
tp166
g1
(g11
g12
(I0
F95.3
I38
F-352.8157894736843
tp167
tp168
Rp169
s(g1
(g2
g3
Ntp170
Rp171
(S'South'
p172
I00
g172
I00
g67
I00
I00
tp173
bg172
tp174
g1
(g11
g12
(I0
F406.1999999999998
I141
F-312.37588652482276
tp175
tp176
Rp177
s(g1
(g2
g3
Ntp178
Rp179
(g82
I00
NNS'South'
p180
I00
I00
tp181
bg82
tp182
g1
(g11
g12
(I10
F557.1099999999998
I163
F-259.5214723926379
tp183
tp184
Rp185
s(g1
(g2
g3
Ntp186
Rp187
(g35
I00
g91
I00
g91
I00
I00
tp188
bg21
tp189
g1
(g11
g12
(I1
F216.12000000000003
I81
F-333.1851851851854
tp190
tp191
Rp192
s(g1
(g2
g3
Ntp193
Rp194
(g18
I00
g91
I01
NNI01
tp195
bg91
tp196
g1
(g11
g12
(I0
F12.18
I6
F-397.0
tp197
tp198
Rp199
s(g1
(g2
g3
Ntp200
Rp201
(g67
I00
g66
I00
S'East'
p202
I00
I00
tp203
bg67
tp204
g1
(g11
g12
(I1
F114.94
I44
F-338.7727272727272
tp205
tp206
Rp207
s(g1
(g2
g3
Ntp208
Rp209
(g67
I01
g172
I01
NNI00
tp210
bg172
tp211
g1
(g11
g12
(I0
F33.36
I21
F-441.1428571428571
tp212
tp213
Rp214
s(g1
(g2
g3
Ntp215
Rp216
(S'South'
p217
I00
NNg217
I00
I00
tp218
bg151
tp219
g1
(g11
g12
(I2
F414.2599999999997
I128
F-277.08593749999994
tp220
tp221
Rp222
s(g1
(g2
g3
Ntp223
Rp224
(g43
I01
g44
I00
NNI00
tp225
bg44
tp226
g1
(g11
g12
(I0
F173.13000000000005
I95
F-417.86315789473684
tp227
tp228
Rp229
s(g1
(g2
g3
Ntp230
Rp231
(g35
I01
g18
I00
g19
I00
I00
tp232
bg19
tp233
g1
(g11
g12
(I0
F4.97
I1
F-103.0
tp234
tp235
Rp236
s(g1
(g2
g3
Ntp237
Rp238
(g91
I01
g18
I00
g91
I01
I00
tp239
bg35
tp240
g1
(g11
g12
(I0
F2.97
I1
F-303.0
tp241
tp242
Rp243
s(g1
(g2
g3
Ntp244
Rp245
(g91
I00
NNg91
I00
I01
tp246
bg19
tp247
g1
(g11
g12
(I0
F72.42999999999999
I25
F-310.27999999999986
tp248
tp249
Rp250
s(g1
(g2
g3
Ntp251
Rp252
(S'South'
p253
I01
g142
I00
NNI00
tp254
bg141
tp255
g1
(g11
g12
(I0
F216.25999999999996
I132
F-436.41666666666674
tp256
tp257
Rp258
s(g1
(g2
g3
Ntp259
Rp260
(g172
I00
g67
I00
g172
I00
I00
tp261
bg172
tp262
g1
(g11
g12
(I4
F1032.5500000000009
I353
F-307.6062322946175
tp263
tp264
Rp265
s(g1
(g2
g3
Ntp266
Rp267
(g19
I00
g91
I01
g35
I00
I00
tp268
bg19
tp269
g1
(g11
g12
(I0
F2.78
I1
F-322.0
tp270
tp271
Rp272
s(g1
(g2
g3
Ntp273
Rp274
(S'West'
p275
I00
g275
I00
g275
I00
I00
tp276
bS'Stop'
p277
tp278
g1
(g11
g12
(I1
F56.65
I8
F108.12500000000003
tp279
tp280
Rp281
s(g1
(g2
g3
Ntp282
Rp283
(g19
I01
NNNNI01
tp284
bg21
tp285
g1
(g11
g12
(I0
F5.0
I1
F-100.0
tp286
tp287
Rp288
s(g1
(g2
g3
Ntp289
Rp290
(g172
I00
g66
I00
g66
I00
I00
tp291
bg202
tp292
g1
(g11
g12
(I0
F694.4300000000002
I263
F-336.7984790874525
tp293
tp294
Rp295
s(g1
(g2
g3
Ntp296
Rp297
(g18
I01
g18
I01
g91
I00
I00
tp298
bg35
tp299
g1
(g11
g12
(I0
F4.99
I1
F-101.0
tp300
tp301
Rp302
s(g1
(g2
g3
Ntp303
Rp304
(g35
I01
g18
I00
g19
I00
I00
tp305
bg21
tp306
g1
(g11
g12
(I0
F3.14
I1
F-286.0
tp307
tp308
Rp309
s(g1
(g2
g3
Ntp310
Rp311
(g91
I00
g18
I01
g35
I00
I00
tp312
bg35
tp313
g1
(g11
g12
(I0
F5.89
I2
F-305.5
tp314
tp315
Rp316
s(g1
(g2
g3
Ntp317
Rp318
(g35
I01
g18
I00
g18
I00
I00
tp319
bg21
tp320
g1
(g11
g12
(I0
F9.43
I2
F-128.5
tp321
tp322
Rp323
s(g1
(g2
g3
Ntp324
Rp325
(g19
I00
g19
I00
g91
I00
I00
tp326
bg35
tp327
g1
(g11
g12
(I0
F32.82
I10
F-271.8
tp328
tp329
Rp330
s(g1
(g2
g3
Ntp331
Rp332
(g35
I01
g91
I01
g91
I01
I01
tp333
bg35
tp334
g1
(g11
g12
(I0
F2.85
I1
F-315.0
tp335
tp336
Rp337
s(g1
(g2
g3
Ntp338
Rp339
(g91
I00
g19
I00
g18
I00
I00
tp340
bg19
tp341
g1
(g11
g12
(I0
F35.34
I13
F-328.15384615384613
tp342
tp343
Rp344
s(g1
(g2
g3
Ntp345
Rp346
(g202
I01
g66
I00
g66
I00
I01
tp347
bS'Stop'
p348
tp349
g1
(g11
g12
(I0
F65.06
I20
F-274.70000000000005
tp350
tp351
Rp352
s(g1
(g2
g3
Ntp353
Rp354
(g217
I01
NNNNI00
tp355
bg7
tp356
g1
(g11
g12
(I0
F183.52999999999994
I53
F-254.11320754716976
tp357
tp358
Rp359
s(g1
(g2
g3
Ntp360
Rp361
(g19
I01
g91
I01
g91
I01
I00
tp362
bg35
tp363
g1
(g11
g12
(I0
F5.38
I2
F-331.0
tp364
tp365
Rp366
s(g1
(g2
g3
Ntp367
Rp368
(g82
I01
NNNNI00
tp369
bS'North'
p370
tp371
g1
(g11
g12
(I0
F62.5
I20
F-289.54999999999995
tp372
tp373
Rp374
s(g1
(g2
g3
Ntp375
Rp376
(g35
I01
g91
I01
g91
I01
I00
tp377
bg35
tp378
g1
(g11
g12
(I0
F5.03
I1
F-97.0
tp379
tp380
Rp381
s(g1
(g2
g3
Ntp382
Rp383
(g66
I00
g66
I00
g67
I00
I00
tp384
bg172
tp385
g1
(g11
g12
(I1
F362.2999999999999
I134
F-333.25373134328373
tp386
tp387
Rp388
s(g1
(g2
g3
Ntp389
Rp390
(g18
I00
g35
I00
g91
I00
I00
tp391
bg21
tp392
g1
(g11
g12
(I0
F11.530000000000001
I3
F-215.66666666666666
tp393
tp394
Rp395
s(g1
(g2
g3
Ntp396
Rp397
(g18
I00
g91
I00
g18
I00
I00
tp398
bg91
tp399
g1
(g11
g12
(I0
F234.32999999999987
I84
F-321.03571428571433
tp400
tp401
Rp402
s(g1
(g2
g3
Ntp403
Rp404
(g35
I00
g91
I00
g91
I00
I01
tp405
bg91
tp406
g1
(g11
g12
(I0
F4.11
I3
F-503.66666666666663
tp407
tp408
Rp409
s(g1
(g2
g3
Ntp410
Rp411
(g19
I01
NNg91
I00
I00
tp412
bg18
tp413
g1
(g11
g12
(I0
F10.190000000000001
I3
F-260.3333333333333
tp414
tp415
Rp416
s(g1
(g2
g3
Ntp417
Rp418
(g6
I00
NNg6
I00
I00
tp419
bg151
tp420
g1
(g11
g12
(I1
F219.04000000000008
I71
F-291.4929577464788
tp421
tp422
Rp423
s(g1
(g2
g3
Ntp424
Rp425
(g217
I01
g7
I00
NNI00
tp426
bg7
tp427
g1
(g11
g12
(I0
F90.98999999999998
I43
F-398.2558139534883
tp428
tp429
Rp430
s(g1
(g2
g3
Ntp431
Rp432
(g67
I00
g66
I00
g172
I00
I00
tp433
bg348
tp434
g1
(g11
g12
(I1
F121.81
I37
F-270.78378378378386
tp435
tp436
Rp437
s(g1
(g2
g3
Ntp438
Rp439
(g202
I00
g66
I00
g66
I00
I01
tp440
bg172
tp441
g1
(g11
g12
(I0
F225.87999999999997
I93
F-358.301075268817
tp442
tp443
Rp444
s(g1
(g2
g3
Ntp445
Rp446
(g6
I00
g6
I00
NNI00
tp447
bg151
tp448
g1
(g11
g12
(I7
F4281.750000000002
I2951
F-456.96272450017034
tp449
tp450
Rp451
s(g1
(g2
g3
Ntp452
Rp453
(g19
I00
g35
I01
g18
I01
I00
tp454
bg21
tp455
g1
(g11
g12
(I0
F5.98
I2
F-301.0
tp456
tp457
Rp458
s(g1
(g2
g3
Ntp459
Rp460
(g18
I00
g35
I00
g35
I00
I00
tp461
bg18
tp462
g1
(g11
g12
(I1
F127.83999999999997
I39
F-272.2051282051281
tp463
tp464
Rp465
s(g1
(g2
g3
Ntp466
Rp467
(g142
I00
NNNNI01
tp468
bS'North'
p469
tp470
g1
(g11
g12
(I0
F5.33
I3
F-422.33333333333337
tp471
tp472
Rp473
s(g1
(g2
g3
Ntp474
Rp475
(g202
I00
g172
I00
NNI00
tp476
bg67
tp477
g1
(g11
g12
(I0
F912.8000000000008
I481
F-410.8752598752598
tp478
tp479
Rp480
s(g1
(g2
g3
Ntp481
Rp482
(g217
I01
NNNNI00
tp483
bg6
tp484
g1
(g11
g12
(I0
F172.29999999999998
I52
F-269.8461538461538
tp485
tp486
Rp487
s(g1
(g2
g3
Ntp488
Rp489
(g19
I00
g35
I00
g19
I00
I00
tp490
bg19
tp491
g1
(g11
g12
(I0
F59.81999999999999
I20
F-300.9000000000001
tp492
tp493
Rp494
s(g1
(g2
g3
Ntp495
Rp496
(g66
I00
g202
I00
g172
I00
I00
tp497
bg66
tp498
g1
(g11
g12
(I0
F103.4
I37
F-320.5405405405407
tp499
tp500
Rp501
s(g1
(g2
g3
Ntp502
Rp503
(S'South'
p504
I00
NNS'East'
p505
I00
I00
tp506
bg505
tp507
g1
(g11
g12
(I0
F92.23000000000002
I23
F-198.99999999999991
tp508
tp509
Rp510
s(g1
(g2
g3
Ntp511
Rp512
(S'North'
p513
I01
S'East'
p514
I00
NNI00
tp515
bg514
tp516
g1
(g11
g12
(I0
F247.99
I102
F-356.8725490196079
tp517
tp518
Rp519
s(g1
(g2
g3
Ntp520
Rp521
(g91
I01
g91
I01
g91
I01
I01
tp522
bg21
tp523
g1
(g11
g12
(I0
F45.21
I15
F-298.6
tp524
tp525
Rp526
s(g1
(g2
g3
Ntp527
Rp528
(g18
I00
g91
I01
g35
I01
I00
tp529
bg91
tp530
g1
(g11
g12
(I0
F5.03
I1
F-97.0
tp531
tp532
Rp533
s(g1
(g2
g3
Ntp534
Rp535
(g19
I01
g18
I00
g35
I00
I00
tp536
bg35
tp537
g1
(g11
g12
(I0
F4.99
I1
F-101.0
tp538
tp539
Rp540
s(g1
(g2
g3
Ntp541
Rp542
(g253
I00
g469
I00
NNI01
tp543
bS'Stop'
p544
tp545
g1
(g11
g12
(I0
F55.07
I30
F-420.49999999999994
tp546
tp547
Rp548
s(g1
(g2
g3
Ntp549
Rp550
(g18
I01
g35
I00
NNI00
tp551
bg91
tp552
g1
(g11
g12
(I0
F50.53999999999999
I31
F-436.96774193548384
tp553
tp554
Rp555
s(g1
(g2
g3
Ntp556
Rp557
(g370
I00
NNS'West'
p558
I00
I00
tp559
bg180
tp560
g1
(g11
g12
(I0
F66.64000000000001
I28
F-363.50000000000006
tp561
tp562
Rp563
s(g1
(g2
g3
Ntp564
Rp565
(g19
I00
g35
I00
g35
I00
I00
tp566
bg21
tp567
g1
(g11
g12
(I0
F34.29
I12
F-314.25
tp568
tp569
Rp570
s(g1
(g2
g3
Ntp571
Rp572
(g91
I00
g19
I00
g91
I00
I00
tp573
bg18
tp574
g1
(g11
g12
(I0
F33.48
I14
F-364.71428571428567
tp575
tp576
Rp577
s(g1
(g2
g3
Ntp578
Rp579
(g18
I01
g19
I01
g19
I01
I00
tp580
bg21
tp581
g1
(g11
g12
(I0
F6.93
I2
F-253.5
tp582
tp583
Rp584
s(g1
(g2
g3
Ntp585
Rp586
(g19
I01
g91
I00
g91
I00
I00
tp587
bg21
tp588
g1
(g11
g12
(I0
F48.129999999999995
I16
F-299.1875
tp589
tp590
Rp591
s(g1
(g2
g3
Ntp592
Rp593
(g35
I00
g19
I00
g91
I00
I00
tp594
bg21
tp595
g1
(g11
g12
(I0
F33.17
I10
F-268.3
tp596
tp597
Rp598
s(g1
(g2
g3
Ntp599
Rp600
(g217
I00
NNNNI00
tp601
bg151
tp602
g1
(g11
g12
(I2
F676.25
I205
F-273.590243902439
tp603
tp604
Rp605
s(g1
(g2
g3
Ntp606
Rp607
(g18
I00
g18
I00
g35
I01
I00
tp608
bg91
tp609
g1
(g11
g12
(I0
F4.65
I1
F-135.0
tp610
tp611
Rp612
s(g1
(g2
g3
Ntp613
Rp614
(g67
I00
g66
I00
g172
I00
I00
tp615
bg67
tp616
g1
(g11
g12
(I6
F289.7999999999999
I86
F-263.50000000000006
tp617
tp618
Rp619
s(g1
(g2
g3
Ntp620
Rp621
(g19
I01
NNg91
I00
I01
tp622
bg18
tp623
g1
(g11
g12
(I0
F2.68
I1
F-332.0
tp624
tp625
Rp626
s(g1
(g2
g3
Ntp627
Rp628
(g91
I01
g35
I00
NNI00
tp629
bg21
tp630
g1
(g11
g12
(I0
F1.21
I1
F-479.0
tp631
tp632
Rp633
s(g1
(g2
g3
Ntp634
Rp635
(g217
I00
g6
I00
NNI00
tp636
bg151
tp637
g1
(g11
g12
(I5
F4204.390000000005
I2805
F-451.4987522281633
tp638
tp639
Rp640
s(g1
(g2
g3
Ntp641
Rp642
(g66
I00
g67
I00
NNI00
tp643
bg67
tp644
g1
(g11
g12
(I0
F23.53
I8
F-305.875
tp645
tp646
Rp647
s(g1
(g2
g3
Ntp648
Rp649
(g35
I01
NNg91
I00
I00
tp650
bg18
tp651
g1
(g11
g12
(I0
F2.67
I1
F-333.0
tp652
tp653
Rp654
s(g1
(g2
g3
Ntp655
Rp656
(g19
I00
g91
I01
g91
I01
I01
tp657
bg18
tp658
g1
(g11
g12
(I0
F28.290000000000006
I9
F-285.66666666666663
tp659
tp660
Rp661
s(g1
(g2
g3
Ntp662
Rp663
(g504
I01
NNS'West'
p664
I00
I00
tp665
bg664
tp666
g1
(g11
g12
(I0
F7.529999999999999
I2
F-223.5
tp667
tp668
Rp669
s(g1
(g2
g3
Ntp670
Rp671
(g505
I00
S'North'
p672
I00
NNI01
tp673
bg672
tp674
g1
(g11
g12
(I0
F293.22999999999996
I123
F-361.7479674796748
tp675
tp676
Rp677
s(g1
(g2
g3
Ntp678
Rp679
(g202
I01
g66
I00
g66
I00
I01
tp680
bg172
tp681
g1
(g11
g12
(I0
F55.35999999999999
I19
F-308.63157894736844
tp682
tp683
Rp684
s(g1
(g2
g3
Ntp685
Rp686
(S'West'
p687
I00
NNg513
I00
I00
tp688
bg513
tp689
g1
(g11
g12
(I0
F63.56999999999999
I17
F-242.82352941176475
tp690
tp691
Rp692
s(g1
(g2
g3
Ntp693
Rp694
(g18
I01
NNg19
I00
I00
tp695
bg18
tp696
g1
(g11
g12
(I0
F3.24
I1
F-276.0
tp697
tp698
Rp699
s(g1
(g2
g3
Ntp700
Rp701
(g66
I01
g172
I00
NNI00
tp702
bg202
tp703
g1
(g11
g12
(I0
F122.70999999999997
I95
F-471.0526315789474
tp704
tp705
Rp706
s(g1
(g2
g3
Ntp707
Rp708
(g35
I00
g18
I01
g18
I01
I00
tp709
bg21
tp710
g1
(g11
g12
(I0
F3.12
I1
F-288.0
tp711
tp712
Rp713
s(g1
(g2
g3
Ntp714
Rp715
(g202
I00
g67
I00
g172
I00
I00
tp716
bg67
tp717
g1
(g11
g12
(I0
F458.0199999999999
I158
F-310.37341772151916
tp718
tp719
Rp720
s(g1
(g2
g3
Ntp721
Rp722
(g18
I01
g91
I00
g35
I01
I00
tp723
bg19
tp724
g1
(g11
g12
(I0
F5.49
I2
F-325.5
tp725
tp726
Rp727
s(g1
(g2
g3
Ntp728
Rp729
(g44
I00
g44
I00
g44
I00
I00
tp730
bg277
tp731
g1
(g11
g12
(I2
F709.1199999999998
I227
F-288.8898678414098
tp732
tp733
Rp734
s(g1
(g2
g3
Ntp735
Rp736
(g91
I00
g19
I01
g19
I01
I00
tp737
bg91
tp738
g1
(g11
g12
(I0
F2.71
I1
F-329.0
tp739
tp740
Rp741
s(g1
(g2
g3
Ntp742
Rp743
(g18
I01
g18
I01
g35
I00
I00
tp744
bg21
tp745
g1
(g11
g12
(I0
F8.739999999999998
I3
F-308.6666666666667
tp746
tp747
Rp748
s(g1
(g2
g3
Ntp749
Rp750
(g18
I01
g18
I01
g35
I00
I00
tp751
bg19
tp752
g1
(g11
g12
(I0
F12.59
I3
F-180.33333333333331
tp753
tp754
Rp755
s(g1
(g2
g3
Ntp756
Rp757
(g18
I01
g91
I00
g91
I00
I00
tp758
bg18
tp759
g1
(g11
g12
(I0
F110.00000000000003
I35
F-285.71428571428567
tp760
tp761
Rp762
s(g1
(g2
g3
Ntp763
Rp764
(g172
I00
g66
I01
g66
I01
I00
tp765
bg348
tp766
g1
(g11
g12
(I0
F36.3
I10
F-236.99999999999997
tp767
tp768
Rp769
s(g1
(g2
g3
Ntp770
Rp771
(g19
I00
g91
I01
g19
I00
I00
tp772
bg19
tp773
g1
(g11
g12
(I0
F3.11
I1
F-289.0
tp774
tp775
Rp776
s(g1
(g2
g3
Ntp777
Rp778
(g19
I00
g18
I00
g18
I00
I00
tp779
bg91
tp780
g1
(g11
g12
(I0
F17.94
I7
F-343.7142857142857
tp781
tp782
Rp783
s(g1
(g2
g3
Ntp784
Rp785
(g18
I00
g35
I01
NNI00
tp786
bg91
tp787
g1
(g11
g12
(I0
F53.32999999999999
I41
F-469.92682926829275
tp788
tp789
Rp790
s(g1
(g2
g3
Ntp791
Rp792
(g35
I01
NNg19
I00
I00
tp793
bg18
tp794
g1
(g11
g12
(I0
F11.95
I2
F-2.5
tp795
tp796
Rp797
s(g1
(g2
g3
Ntp798
Rp799
(g35
I00
g35
I00
g18
I00
I00
tp800
bg21
tp801
g1
(g11
g12
(I0
F91.66000000000001
I37
F-353.1891891891892
tp802
tp803
Rp804
s(g1
(g2
g3
Ntp805
Rp806
(g18
I00
g91
I01
g19
I00
I00
tp807
bg35
tp808
g1
(g11
g12
(I0
F2.9
I1
F-310.0
tp809
tp810
Rp811
s(g1
(g2
g3
Ntp812
Rp813
(g91
I00
g91
I00
g18
I00
I01
tp814
bg21
tp815
g1
(g11
g12
(I0
F7.199999999999999
I2
F-240.0
tp816
tp817
Rp818
s(g1
(g2
g3
Ntp819
Rp820
(g66
I00
g172
I01
NNI00
tp821
bg202
tp822
g1
(g11
g12
(I0
F175.56999999999996
I133
F-470.85714285714295
tp823
tp824
Rp825
s(g1
(g2
g3
Ntp826
Rp827
(g18
I01
g18
I01
g18
I01
I00
tp828
bg21
tp829
g1
(g11
g12
(I0
F49.21999999999999
I15
F-271.8666666666667
tp830
tp831
Rp832
s(g1
(g2
g3
Ntp833
Rp834
(g6
I01
g6
I01
NNI01
tp835
bg9
tp836
g1
(g11
g12
(I0
F252.29
I123
F-398.439024390244
tp837
tp838
Rp839
s(g1
(g2
g3
Ntp840
Rp841
(g35
I00
g19
I00
g91
I01
I00
tp842
bg35
tp843
g1
(g11
g12
(I0
F7.71
I2
F-214.5
tp844
tp845
Rp846
s(g1
(g2
g3
Ntp847
Rp848
(g9
I01
NNNNI00
tp849
bg9
tp850
g1
(g11
g12
(I1
F118.56
I34
F-251.44117647058823
tp851
tp852
Rp853
s(g1
(g2
g3
Ntp854
Rp855
(g253
I00
NNg469
I01
I00
tp856
bg141
tp857
g1
(g11
g12
(I0
F6.17
I3
F-394.3333333333333
tp858
tp859
Rp860
s(g1
(g2
g3
Ntp861
Rp862
(g180
I00
NNg558
I00
I00
tp863
bg84
tp864
g1
(g11
g12
(I0
F138.72999999999996
I41
F-262.6585365853659
tp865
tp866
Rp867
s(g1
(g2
g3
Ntp868
Rp869
(g35
I01
NNg19
I00
I00
tp870
bg35
tp871
g1
(g11
g12
(I0
F14.91
I3
F-103.0
tp872
tp873
Rp874
s(g1
(g2
g3
Ntp875
Rp876
(g18
I00
g91
I00
g91
I00
I01
tp877
bg19
tp878
g1
(g11
g12
(I0
F16.98
I9
F-411.33333333333326
tp879
tp880
Rp881
s(g1
(g2
g3
Ntp882
Rp883
(g67
I00
g172
I00
NNI00
tp884
bg202
tp885
g1
(g11
g12
(I1
F614.5399999999996
I305
F-398.55409836065604
tp886
tp887
Rp888
s(g1
(g2
g3
Ntp889
Rp890
(g19
I01
g91
I01
g91
I01
I01
tp891
bg18
tp892
g1
(g11
g12
(I0
F13.57
I5
F-328.6
tp893
tp894
Rp895
s(g1
(g2
g3
Ntp896
Rp897
(g6
I00
g6
I00
NNI00
tp898
bg6
tp899
g1
(g11
g12
(I49
F10052.02000000001
I5938
F-432.4195015156617
tp900
tp901
Rp902
s(g1
(g2
g3
Ntp903
Rp904
(g35
I00
g18
I00
g19
I00
I00
tp905
bg21
tp906
g1
(g11
g12
(I0
F43.410000000000004
I14
F-289.9285714285715
tp907
tp908
Rp909
s(g1
(g2
g3
Ntp910
Rp911
(g35
I00
g18
I01
g18
I01
I00
tp912
bg91
tp913
g1
(g11
g12
(I0
F2.75
I1
F-325.0
tp914
tp915
Rp916
s(g1
(g2
g3
Ntp917
Rp918
(g505
I00
g672
I01
NNI01
tp919
bg505
tp920
g1
(g11
g12
(I0
F79.21000000000001
I27
F-306.62962962962956
tp921
tp922
Rp923
s(g1
(g2
g3
Ntp924
Rp925
(g687
I00
g514
I01
NNI00
tp926
bS'South'
p927
tp928
g1
(g11
g12
(I0
F81.25999999999998
I81
F-507.1728395061729
tp929
tp930
Rp931
s(g1
(g2
g3
Ntp932
Rp933
(g66
I00
g202
I00
g172
I00
I00
tp934
bg348
tp935
g1
(g11
g12
(I1
F59.24
I16
F-237.37500000000003
tp936
tp937
Rp938
s(g1
(g2
g3
Ntp939
Rp940
(g19
I00
NNg91
I00
I01
tp941
bg21
tp942
g1
(g11
g12
(I0
F33.32
I12
F-322.33333333333337
tp943
tp944
Rp945
s(g1
(g2
g3
Ntp946
Rp947
(g91
I00
g91
I00
g35
I00
I01
tp948
bg91
tp949
g1
(g11
g12
(I0
F7.43
I2
F-228.5
tp950
tp951
Rp952
s(g1
(g2
g3
Ntp953
Rp954
(g82
I00
g370
I00
NNI00
tp955
bg558
tp956
g1
(g11
g12
(I1
F3306.1500000000024
I1822
F-419.65806805708036
tp957
tp958
Rp959
s(g1
(g2
g3
Ntp960
Rp961
(g19
I01
NNNNI01
tp962
bg18
tp963
g1
(g11
g12
(I0
F4.93
I1
F-107.0
tp964
tp965
Rp966
s(g1
(g2
g3
Ntp967
Rp968
(g558
I01
NNg180
I01
I00
tp969
bg558
tp970
g1
(g11
g12
(I0
F0.88
I1
F-512.0
tp971
tp972
Rp973
s(g1
(g2
g3
Ntp974
Rp975
(g82
I01
NNg180
I01
I00
tp976
bg84
tp977
g1
(g11
g12
(I0
F4.859999999999999
I2
F-357.0
tp978
tp979
Rp980
s(g1
(g2
g3
Ntp981
Rp982
(g91
I00
g91
I00
g18
I01
I00
tp983
bg35
tp984
g1
(g11
g12
(I0
F13.809999999999999
I4
F-254.75
tp985
tp986
Rp987
s(g1
(g2
g3
Ntp988
Rp989
(g35
I00
g18
I00
g18
I00
I00
tp990
bg19
tp991
g1
(g11
g12
(I0
F117.49
I32
F-232.84374999999997
tp992
tp993
Rp994
s(g1
(g2
g3
Ntp995
Rp996
(g6
I00
NNNNI00
tp997
bg7
tp998
g1
(g11
g12
(I0
F427.3699999999999
I141
F-297.6241134751772
tp999
tp1000
Rp1001
s(g1
(g2
g3
Ntp1002
Rp1003
(g19
I01
NNg35
I00
I00
tp1004
bg35
tp1005
g1
(g11
g12
(I0
F6.93
I1
F93.0
tp1006
tp1007
Rp1008
s(g1
(g2
g3
Ntp1009
Rp1010
(g172
I00
g202
I00
g202
I00
I00
tp1011
bg66
tp1012
g1
(g11
g12
(I0
F101.66999999999999
I34
F-300.97058823529414
tp1013
tp1014
Rp1015
s(g1
(g2
g3
Ntp1016
Rp1017
(g91
I00
g91
I00
g35
I01
I00
tp1018
bg19
tp1019
g1
(g11
g12
(I0
F27.67
I9
F-292.5555555555556
tp1020
tp1021
Rp1022
s(g1
(g2
g3
Ntp1023
Rp1024
(g9
I00
g217
I01
NNI00
tp1025
bg151
tp1026
g1
(g11
g12
(I0
F79.50999999999998
I59
F-465.23728813559313
tp1027
tp1028
Rp1029
s(g1
(g2
g3
Ntp1030
Rp1031
(g19
I00
g19
I00
g18
I00
I00
tp1032
bg35
tp1033
g1
(g11
g12
(I0
F4.38
I1
F-162.0
tp1034
tp1035
Rp1036
s(g1
(g2
g3
Ntp1037
Rp1038
(g217
I00
g217
I00
NNI00
tp1039
bg151
tp1040
g1
(g11
g12
(I5
F1477.84
I692
F-387.1358381502891
tp1041
tp1042
Rp1043
s(g1
(g2
g3
Ntp1044
Rp1045
(g35
I01
g18
I01
g18
I01
I00
tp1046
bg35
tp1047
g1
(g11
g12
(I0
F3.03
I1
F-297.0
tp1048
tp1049
Rp1050
s(g1
(g2
g3
Ntp1051
Rp1052
(g19
I00
g35
I00
g18
I01
I00
tp1053
bg21
tp1054
g1
(g11
g12
(I0
F31.31
I9
F-252.1111111111111
tp1055
tp1056
Rp1057
s(g1
(g2
g3
Ntp1058
Rp1059
(g91
I01
g18
I01
NNI00
tp1060
bg21
tp1061
g1
(g11
g12
(I0
F11.44
I8
F-457.0
tp1062
tp1063
Rp1064
s(g1
(g2
g3
Ntp1065
Rp1066
(g44
I00
g44
I00
S'East'
p1067
I00
I00
tp1068
bg44
tp1069
g1
(g11
g12
(I1
F283.81000000000006
I92
F-292.0978260869565
tp1070
tp1071
Rp1072
s(g1
(g2
g3
Ntp1073
Rp1074
(g91
I00
g19
I00
g91
I00
I00
tp1075
bg19
tp1076
g1
(g11
g12
(I0
F37.21
I13
F-313.76923076923066
tp1077
tp1078
Rp1079
s(g1
(g2
g3
Ntp1080
Rp1081
(g18
I01
g35
I01
g18
I01
I00
tp1082
bg19
tp1083
g1
(g11
g12
(I0
F15.100000000000001
I5
F-298.0
tp1084
tp1085
Rp1086
s(g1
(g2
g3
Ntp1087
Rp1088
(g19
I00
g35
I00
g91
I00
I00
tp1089
bg21
tp1090
g1
(g11
g12
(I0
F5.61
I2
F-319.5
tp1091
tp1092
Rp1093
s(g1
(g2
g3
Ntp1094
Rp1095
(g19
I00
g35
I01
g18
I01
I00
tp1096
bg35
tp1097
g1
(g11
g12
(I0
F5.82
I2
F-309.0
tp1098
tp1099
Rp1100
s(g1
(g2
g3
Ntp1101
Rp1102
(g35
I00
g35
I00
g18
I01
I00
tp1103
bg35
tp1104
g1
(g11
g12
(I0
F18.77
I6
F-287.1666666666667
tp1105
tp1106
Rp1107
s(g1
(g2
g3
Ntp1108
Rp1109
(g35
I00
g18
I00
g91
I00
I00
tp1110
bg91
tp1111
g1
(g11
g12
(I0
F21.36
I7
F-302.57142857142856
tp1112
tp1113
Rp1114
s(g1
(g2
g3
Ntp1115
Rp1116
(g19
I00
g18
I01
g19
I00
I00
tp1117
bg21
tp1118
g1
(g11
g12
(I0
F2.82
I1
F-318.0
tp1119
tp1120
Rp1121
s(g1
(g2
g3
Ntp1122
Rp1123
(g82
I01
g370
I01
NNI00
tp1124
bg84
tp1125
g1
(g11
g12
(I0
F119.11999999999996
I106
F-491.6792452830192
tp1126
tp1127
Rp1128
s(g1
(g2
g3
Ntp1129
Rp1130
(g82
I00
NNNNI00
tp1131
bg82
tp1132
g1
(g11
g12
(I11
F1134.97
I335
F-262.68059701492535
tp1133
tp1134
Rp1135
s(g1
(g2
g3
Ntp1136
Rp1137
(g370
I00
NNg558
I00
I00
tp1138
bg84
tp1139
g1
(g11
g12
(I0
F84.11999999999999
I28
F-301.75
tp1140
tp1141
Rp1142
s(g1
(g2
g3
Ntp1143
Rp1144
(g43
I00
g44
I00
g43
I00
I00
tp1145
bg44
tp1146
g1
(g11
g12
(I0
F48.050000000000004
I10
F-119.49999999999999
tp1147
tp1148
Rp1149
s(g1
(g2
g3
Ntp1150
Rp1151
(g18
I01
NNg91
I00
I00
tp1152
bg19
tp1153
g1
(g11
g12
(I0
F7.950000000000001
I3
F-335.0
tp1154
tp1155
Rp1156
s(g1
(g2
g3
Ntp1157
Rp1158
(g505
I00
g672
I00
NNI01
tp1159
bS'Stop'
p1160
tp1161
g1
(g11
g12
(I0
F312.18999999999994
I124
F-349.0403225806454
tp1162
tp1163
Rp1164
s(g1
(g2
g3
Ntp1165
Rp1166
(g558
I00
NNg180
I00
I00
tp1167
bg84
tp1168
g1
(g11
g12
(I0
F54.339999999999996
I21
F-349.8095238095237
tp1169
tp1170
Rp1171
s(g1
(g2
g3
Ntp1172
Rp1173
(g91
I00
g18
I00
g19
I00
I00
tp1174
bg21
tp1175
g1
(g11
g12
(I0
F30.02
I10
F-299.79999999999995
tp1176
tp1177
Rp1178
s(g1
(g2
g3
Ntp1179
Rp1180
(g91
I01
g18
I01
NNI00
tp1181
bg18
tp1182
g1
(g11
g12
(I0
F25.0
I8
F-287.5
tp1183
tp1184
Rp1185
s(g1
(g2
g3
Ntp1186
Rp1187
(g91
I00
g91
I00
g19
I00
I01
tp1188
bg91
tp1189
g1
(g11
g12
(I0
F14.120000000000001
I4
F-247.0
tp1190
tp1191
Rp1192
s(g1
(g2
g3
Ntp1193
Rp1194
(g18
I00
g35
I01
g18
I00
I00
tp1195
bg18
tp1196
g1
(g11
g12
(I0
F29.270000000000003
I9
F-274.77777777777777
tp1197
tp1198
Rp1199
s(g1
(g2
g3
Ntp1200
Rp1201
(g91
I00
g91
I00
g19
I00
I01
tp1202
bg19
tp1203
g1
(g11
g12
(I0
F5.8
I2
F-310.0
tp1204
tp1205
Rp1206
s(g1
(g2
g3
Ntp1207
Rp1208
(g18
I01
g19
I00
g19
I00
I00
tp1209
bg35
tp1210
g1
(g11
g12
(I0
F6.21
I2
F-289.5
tp1211
tp1212
Rp1213
s(g1
(g2
g3
Ntp1214
Rp1215
(g253
I01
g142
I01
NNI00
tp1216
bg544
tp1217
g1
(g11
g12
(I0
F94.33000000000003
I67
F-460.89552238805953
tp1218
tp1219
Rp1220
s(g1
(g2
g3
Ntp1221
Rp1222
(g172
I01
g172
I01
g172
I01
I00
tp1223
bg67
tp1224
g1
(g11
g12
(I0
F48.620000000000005
I15
F-275.8666666666667
tp1225
tp1226
Rp1227
s(g1
(g2
g3
Ntp1228
Rp1229
(g35
I01
g35
I01
g18
I00
I00
tp1230
bg35
tp1231
g1
(g11
g12
(I0
F3.18
I1
F-282.0
tp1232
tp1233
Rp1234
s(g1
(g2
g3
Ntp1235
Rp1236
(g18
I00
g19
I01
g91
I00
I00
tp1237
bg91
tp1238
g1
(g11
g12
(I0
F2.72
I1
F-328.0
tp1239
tp1240
Rp1241
s(g1
(g2
g3
Ntp1242
Rp1243
(g172
I00
g172
I00
g172
I00
I00
tp1244
bg67
tp1245
g1
(g11
g12
(I1
F648.6999999999999
I219
F-304.5662100456619
tp1246
tp1247
Rp1248
s(g1
(g2
g3
Ntp1249
Rp1250
(g91
I00
g19
I01
g19
I01
I00
tp1251
bg21
tp1252
g1
(g11
g12
(I0
F3.04
I1
F-296.0
tp1253
tp1254
Rp1255
s(g1
(g2
g3
Ntp1256
Rp1257
(g35
I00
g18
I01
g91
I00
I00
tp1258
bg35
tp1259
g1
(g11
g12
(I0
F3.14
I1
F-286.0
tp1260
tp1261
Rp1262
s(g1
(g2
g3
Ntp1263
Rp1264
(g18
I00
g91
I01
g35
I00
I00
tp1265
bg35
tp1266
g1
(g11
g12
(I0
F6.98
I1
F98.0
tp1267
tp1268
Rp1269
s(g1
(g2
g3
Ntp1270
Rp1271
(g18
I00
g18
I00
g35
I01
I00
tp1272
bg21
tp1273
g1
(g11
g12
(I0
F4.96
I1
F-104.0
tp1274
tp1275
Rp1276
s(g1
(g2
g3
Ntp1277
Rp1278
(g43
I00
g43
I00
g275
I00
I00
tp1279
bg43
tp1280
g1
(g11
g12
(I2
F889.6799999999994
I291
F-295.6460481099659
tp1281
tp1282
Rp1283
s(g1
(g2
g3
Ntp1284
Rp1285
(g18
I01
g35
I00
g18
I01
I00
tp1286
bg35
tp1287
g1
(g11
g12
(I0
F64.88000000000001
I18
F-239.5555555555555
tp1288
tp1289
Rp1290
s(g1
(g2
g3
Ntp1291
Rp1292
(g35
I00
g19
I00
g18
I00
I00
tp1293
bg19
tp1294
g1
(g11
g12
(I0
F12.290000000000001
I3
F-190.33333333333334
tp1295
tp1296
Rp1297
s(g1
(g2
g3
Ntp1298
Rp1299
(g18
I01
g18
I01
g35
I00
I00
tp1300
bg91
tp1301
g1
(g11
g12
(I0
F8.809999999999999
I3
F-306.3333333333333
tp1302
tp1303
Rp1304
s(g1
(g2
g3
Ntp1305
Rp1306
(g82
I00
NNg370
I01
I00
tp1307
bg84
tp1308
g1
(g11
g12
(I0
F2.38
I1
F-362.0
tp1309
tp1310
Rp1311
s(g1
(g2
g3
Ntp1312
Rp1313
(g19
I01
NNg91
I00
I00
tp1314
bg35
tp1315
g1
(g11
g12
(I0
F10.219999999999999
I3
F-259.3333333333333
tp1316
tp1317
Rp1318
s(g1
(g2
g3
Ntp1319
Rp1320
(g6
I01
g6
I01
NNI00
tp1321
bg6
tp1322
g1
(g11
g12
(I3
F1429.0299999999982
I1049
F-465.33365109628215
tp1323
tp1324
Rp1325
s(g1
(g2
g3
Ntp1326
Rp1327
(g6
I01
g6
I01
NNI00
tp1328
bg7
tp1329
g1
(g11
g12
(I0
F1371.0500000000004
I1001
F-464.5664335664333
tp1330
tp1331
Rp1332
s(g1
(g2
g3
Ntp1333
Rp1334
(g66
I00
g66
I00
g66
I00
I01
tp1335
bg202
tp1336
g1
(g11
g12
(I0
F354.45999999999987
I150
F-366.52666666666664
tp1337
tp1338
Rp1339
s(g1
(g2
g3
Ntp1340
Rp1341
(g91
I01
g35
I01
NNI00
tp1342
bg18
tp1343
g1
(g11
g12
(I0
F2.2
I1
F-380.0
tp1344
tp1345
Rp1346
s(g1
(g2
g3
Ntp1347
Rp1348
(g370
I00
NNg180
I00
I00
tp1349
bg180
tp1350
g1
(g11
g12
(I0
F106.78999999999999
I27
F-204.48148148148152
tp1351
tp1352
Rp1353
s(g1
(g2
g3
Ntp1354
Rp1355
(g35
I00
g19
I00
g18
I00
I00
tp1356
bg91
tp1357
g1
(g11
g12
(I0
F6.23
I3
F-392.3333333333333
tp1358
tp1359
Rp1360
s(g1
(g2
g3
Ntp1361
Rp1362
(g202
I00
g66
I00
g202
I00
I00
tp1363
bg202
tp1364
g1
(g11
g12
(I0
F591.9200000000004
I192
F-291.70833333333326
tp1365
tp1366
Rp1367
s(g1
(g2
g3
Ntp1368
Rp1369
(g202
I01
g172
I00
NNI00
tp1370
bg172
tp1371
g1
(g11
g12
(I0
F132.12000000000003
I70
F-411.2571428571426
tp1372
tp1373
Rp1374
s(g1
(g2
g3
Ntp1375
Rp1376
(g82
I00
NNNNI00
tp1377
bg84
tp1378
g1
(g11
g12
(I0
F377.15999999999985
I131
F-312.25190839694676
tp1379
tp1380
Rp1381
s(g1
(g2
g3
Ntp1382
Rp1383
(g18
I00
g18
I00
g35
I01
I00
tp1384
bg18
tp1385
g1
(g11
g12
(I0
F3.12
I1
F-288.0
tp1386
tp1387
Rp1388
s(g1
(g2
g3
Ntp1389
Rp1390
(g67
I00
g67
I00
g172
I00
I00
tp1391
bg67
tp1392
g1
(g11
g12
(I0
F111.8
I43
F-349.1395348837209
tp1393
tp1394
Rp1395
s(g1
(g2
g3
Ntp1396
Rp1397
(g19
I00
g18
I01
g18
I01
I00
tp1398
bg19
tp1399
g1
(g11
g12
(I0
F32.22
I10
F-277.79999999999995
tp1400
tp1401
Rp1402
s(g1
(g2
g3
Ntp1403
Rp1404
(g18
I00
g19
I01
g91
I00
I00
tp1405
bg19
tp1406
g1
(g11
g12
(I0
F2.97
I1
F-303.0
tp1407
tp1408
Rp1409
s(g1
(g2
g3
Ntp1410
Rp1411
(g19
I01
g91
I00
g35
I00
I00
tp1412
bg91
tp1413
g1
(g11
g12
(I0
F2.83
I1
F-317.0
tp1414
tp1415
Rp1416
s(g1
(g2
g3
Ntp1417
Rp1418
(g91
I00
g91
I00
g18
I01
I00
tp1419
bg19
tp1420
g1
(g11
g12
(I0
F7.5
I2
F-225.0
tp1421
tp1422
Rp1423
s(g1
(g2
g3
Ntp1424
Rp1425
(g18
I00
g19
I00
g91
I01
I00
tp1426
bg18
tp1427
g1
(g11
g12
(I0
F10.34
I3
F-255.33333333333331
tp1428
tp1429
Rp1430
s(g1
(g2
g3
Ntp1431
Rp1432
(g217
I00
NNNNI00
tp1433
bg217
tp1434
g1
(g11
g12
(I14
F1444.8500000000004
I437
F-270.78260869565247
tp1435
tp1436
Rp1437
s(g1
(g2
g3
Ntp1438
Rp1439
(g18
I00
g91
I01
g19
I01
I00
tp1440
bg18
tp1441
g1
(g11
g12
(I0
F2.76
I1
F-324.0
tp1442
tp1443
Rp1444
s(g1
(g2
g3
Ntp1445
Rp1446
(g19
I01
g18
I01
g18
I01
I00
tp1447
bg19
tp1448
g1
(g11
g12
(I0
F8.96
I3
F-301.3333333333333
tp1449
tp1450
Rp1451
s(g1
(g2
g3
Ntp1452
Rp1453
(g35
I01
g91
I00
g18
I00
I00
tp1454
bg91
tp1455
g1
(g11
g12
(I0
F2.98
I1
F-302.0
tp1456
tp1457
Rp1458
s(g1
(g2
g3
Ntp1459
Rp1460
(g18
I01
g18
I01
g91
I00
I00
tp1461
bg21
tp1462
g1
(g11
g12
(I0
F2.98
I1
F-302.0
tp1463
tp1464
Rp1465
s(g1
(g2
g3
Ntp1466
Rp1467
(g18
I00
g18
I00
g35
I00
I00
tp1468
bg91
tp1469
g1
(g11
g12
(I0
F167.84000000000003
I60
F-324.59999999999974
tp1470
tp1471
Rp1472
s(g1
(g2
g3
Ntp1473
Rp1474
(g19
I00
g19
I00
g91
I00
I00
tp1475
bg91
tp1476
g1
(g11
g12
(I0
F26.729999999999997
I9
F-304.4444444444444
tp1477
tp1478
Rp1479
s(g1
(g2
g3
Ntp1480
Rp1481
(g66
I01
g172
I01
NNI00
tp1482
bg67
tp1483
g1
(g11
g12
(I0
F12.870000000000001
I8
F-439.125
tp1484
tp1485
Rp1486
s(g1
(g2
g3
Ntp1487
Rp1488
(g18
I01
g91
I00
g91
I00
I00
tp1489
bg19
tp1490
g1
(g11
g12
(I0
F89.71
I26
F-254.96153846153848
tp1491
tp1492
Rp1493
s(g1
(g2
g3
Ntp1494
Rp1495
(g19
I01
g91
I01
NNI01
tp1496
bg19
tp1497
g1
(g11
g12
(I0
F27.43
I10
F-325.70000000000005
tp1498
tp1499
Rp1500
s(g1
(g2
g3
Ntp1501
Rp1502
(g142
I01
g469
I01
NNI00
tp1503
bg141
tp1504
g1
(g11
g12
(I0
F68.15
I35
F-405.28571428571433
tp1505
tp1506
Rp1507
s(g1
(g2
g3
Ntp1508
Rp1509
(g19
I00
g19
I00
g91
I01
I00
tp1510
bg35
tp1511
g1
(g11
g12
(I0
F5.0
I1
F-100.0
tp1512
tp1513
Rp1514
s(g1
(g2
g3
Ntp1515
Rp1516
(g217
I00
g6
I00
NNI00
tp1517
bg9
tp1518
g1
(g11
g12
(I0
F3747.749999999996
I2689
F-462.07809594644806
tp1519
tp1520
Rp1521
s(g1
(g2
g3
Ntp1522
Rp1523
(g172
I00
g202
I00
g172
I00
I00
tp1524
bg348
tp1525
g1
(g11
g12
(I0
F43.209999999999994
I14
F-291.35714285714283
tp1526
tp1527
Rp1528
s(g1
(g2
g3
Ntp1529
Rp1530
(g35
I00
g91
I01
g35
I00
I00
tp1531
bg21
tp1532
g1
(g11
g12
(I0
F2.45
I1
F-355.0
tp1533
tp1534
Rp1535
s(g1
(g2
g3
Ntp1536
Rp1537
(g19
I01
g35
I00
g18
I00
I00
tp1538
bg21
tp1539
g1
(g11
g12
(I0
F16.669999999999998
I5
F-266.6
tp1540
tp1541
Rp1542
s(g1
(g2
g3
Ntp1543
Rp1544
(g217
I00
NNNNI00
tp1545
bg7
tp1546
g1
(g11
g12
(I2
F619.2700000000001
I204
F-297.25000000000006
tp1547
tp1548
Rp1549
s(g1
(g2
g3
Ntp1550
Rp1551
(g91
I00
g91
I00
g35
I01
I00
tp1552
bg18
tp1553
g1
(g11
g12
(I0
F29.42
I9
F-273.1111111111111
tp1554
tp1555
Rp1556
s(g1
(g2
g3
Ntp1557
Rp1558
(g91
I00
g91
I00
g35
I01
I00
tp1559
bg91
tp1560
g1
(g11
g12
(I0
F42.269999999999996
I14
F-298.07142857142867
tp1561
tp1562
Rp1563
s(g1
(g2
g3
Ntp1564
Rp1565
(g505
I00
g672
I01
NNI01
tp1566
bg1160
tp1567
g1
(g11
g12
(I0
F50.06
I18
F-321.8888888888889
tp1568
tp1569
Rp1570
s(g1
(g2
g3
Ntp1571
Rp1572
(g35
I01
NNg18
I00
I00
tp1573
bg21
tp1574
g1
(g11
g12
(I0
F3.74
I1
F-226.0
tp1575
tp1576
Rp1577
s(g1
(g2
g3
Ntp1578
Rp1579
(g19
I00
g19
I00
g91
I00
I00
tp1580
bg19
tp1581
g1
(g11
g12
(I0
F67.89
I20
F-260.55
tp1582
tp1583
Rp1584
s(g1
(g2
g3
Ntp1585
Rp1586
(g6
I00
NNNNI00
tp1587
bg6
tp1588
g1
(g11
g12
(I11
F1289.6799999999996
I374
F-256.43850267379696
tp1589
tp1590
Rp1591
s(g1
(g2
g3
Ntp1592
Rp1593
(g35
I00
g18
I00
g18
I00
I00
tp1594
bg91
tp1595
g1
(g11
g12
(I0
F94.14999999999999
I32
F-307.28125
tp1596
tp1597
Rp1598
s(g1
(g2
g3
Ntp1599
Rp1600
(g43
I00
g43
I00
g43
I00
I00
tp1601
bg277
tp1602
g1
(g11
g12
(I2
F1102.12
I407
F-329.36609336609337
tp1603
tp1604
Rp1605
s(g1
(g2
g3
Ntp1606
Rp1607
(g217
I01
NNNNI00
tp1608
bg9
tp1609
g1
(g11
g12
(I0
F162.9
I53
F-294.1886792452829
tp1610
tp1611
Rp1612
s(g1
(g2
g3
Ntp1613
Rp1614
(g35
I01
g91
I01
g35
I01
I00
tp1615
bg35
tp1616
g1
(g11
g12
(I0
F4.58
I1
F-142.0
tp1617
tp1618
Rp1619
s(g1
(g2
g3
Ntp1620
Rp1621
(g19
I00
g18
I00
NNI00
tp1622
bg91
tp1623
g1
(g11
g12
(I0
F12.64
I4
F-284.0
tp1624
tp1625
Rp1626
s(g1
(g2
g3
Ntp1627
Rp1628
(g9
I00
g217
I01
NNI00
tp1629
bg9
tp1630
g1
(g11
g12
(I5
F210.78999999999994
I90
F-374.2555555555556
tp1631
tp1632
Rp1633
s(g1
(g2
g3
Ntp1634
Rp1635
(g142
I00
g469
I00
NNI01
tp1636
bg142
tp1637
g1
(g11
g12
(I2
F92.12999999999998
I57
F-441.6666666666666
tp1638
tp1639
Rp1640
s(g1
(g2
g3
Ntp1641
Rp1642
(g66
I00
g172
I00
g67
I00
I00
tp1643
bg67
tp1644
g1
(g11
g12
(I0
F79.15
I26
F-295.57692307692315
tp1645
tp1646
Rp1647
s(g1
(g2
g3
Ntp1648
Rp1649
(g66
I00
g172
I01
NNI00
tp1650
bg172
tp1651
g1
(g11
g12
(I0
F223.32000000000002
I133
F-438.3308270676694
tp1652
tp1653
Rp1654
s(g1
(g2
g3
Ntp1655
Rp1656
(g18
I00
g19
I00
g35
I00
I00
tp1657
bg18
tp1658
g1
(g11
g12
(I0
F13.83
I5
F-323.40000000000003
tp1659
tp1660
Rp1661
s(g1
(g2
g3
Ntp1662
Rp1663
(g19
I01
NNg91
I01
I00
tp1664
bg21
tp1665
g1
(g11
g12
(I0
F5.18
I2
F-341.0
tp1666
tp1667
Rp1668
s(g1
(g2
g3
Ntp1669
Rp1670
(g35
I00
g19
I00
g19
I00
I00
tp1671
bg35
tp1672
g1
(g11
g12
(I2
F201.26000000000002
I64
F-285.53124999999994
tp1673
tp1674
Rp1675
s(g1
(g2
g3
Ntp1676
Rp1677
(g44
I00
g44
I00
g43
I00
I00
tp1678
bg44
tp1679
g1
(g11
g12
(I0
F88.38000000000001
I31
F-315.32258064516134
tp1680
tp1681
Rp1682
s(g1
(g2
g3
Ntp1683
Rp1684
(g142
I01
g469
I01
NNI01
tp1685
bg142
tp1686
g1
(g11
g12
(I0
F1.98
I2
F-501.0
tp1687
tp1688
Rp1689
s(g1
(g2
g3
Ntp1690
Rp1691
(g19
I01
g19
I01
g19
I01
I00
tp1692
bg21
tp1693
g1
(g11
g12
(I0
F2.75
I1
F-325.0
tp1694
tp1695
Rp1696
s(g1
(g2
g3
Ntp1697
Rp1698
(g18
I00
g91
I01
g35
I00
I00
tp1699
bg18
tp1700
g1
(g11
g12
(I0
F10.46
I3
F-251.33333333333331
tp1701
tp1702
Rp1703
s(g1
(g2
g3
Ntp1704
Rp1705
(g6
I00
g6
I00
NNI00
tp1706
bg7
tp1707
g1
(g11
g12
(I3
F4714.670000000006
I2855
F-436.2325744308238
tp1708
tp1709
Rp1710
s(g1
(g2
g3
Ntp1711
Rp1712
(g91
I01
g18
I00
g18
I00
I00
tp1713
bg21
tp1714
g1
(g11
g12
(I0
F2.86
I1
F-314.0
tp1715
tp1716
Rp1717
s(g1
(g2
g3
Ntp1718
Rp1719
(g19
I01
g91
I01
g91
I01
I00
tp1720
bg91
tp1721
g1
(g11
g12
(I0
F5.84
I2
F-308.0
tp1722
tp1723
Rp1724
s(g1
(g2
g3
Ntp1725
Rp1726
(g67
I00
g172
I00
NNI00
tp1727
bg66
tp1728
g1
(g11
g12
(I1
F618.0299999999997
I305
F-398.7278688524592
tp1729
tp1730
Rp1731
s(g1
(g2
g3
Ntp1732
Rp1733
(g35
I01
g91
I00
g18
I00
I00
tp1734
bg18
tp1735
g1
(g11
g12
(I0
F2.97
I1
F-303.0
tp1736
tp1737
Rp1738
s(g1
(g2
g3
Ntp1739
Rp1740
(g91
I00
g91
I00
g18
I01
I00
tp1741
bg91
tp1742
g1
(g11
g12
(I0
F17.68
I6
F-305.33333333333337
tp1743
tp1744
Rp1745
s(g1
(g2
g3
Ntp1746
Rp1747
(g19
I00
NNNNI01
tp1748
bg18
tp1749
g1
(g11
g12
(I0
F48.18
I18
F-332.3333333333333
tp1750
tp1751
Rp1752
s(g1
(g2
g3
Ntp1753
Rp1754
(g19
I01
g35
I01
NNI00
tp1755
bg19
tp1756
g1
(g11
g12
(I0
F20.090000000000003
I11
F-417.3636363636363
tp1757
tp1758
Rp1759
s(g1
(g2
g3
Ntp1760
Rp1761
(g253
I00
NNg469
I01
I00
tp1762
bg469
tp1763
g1
(g11
g12
(I0
F11.0
I3
F-233.33333333333331
tp1764
tp1765
Rp1766
s(g1
(g2
g3
Ntp1767
Rp1768
(g91
I00
NNg35
I01
I00
tp1769
bg18
tp1770
g1
(g11
g12
(I0
F7.56
I2
F-222.0
tp1771
tp1772
Rp1773
s(g1
(g2
g3
Ntp1774
Rp1775
(g91
I00
g18
I01
g18
I01
I00
tp1776
bg35
tp1777
g1
(g11
g12
(I0
F5.03
I1
F-97.0
tp1778
tp1779
Rp1780
s(g1
(g2
g3
Ntp1781
Rp1782
(g18
I01
g35
I00
g35
I00
I00
tp1783
bg19
tp1784
g1
(g11
g12
(I0
F2.97
I1
F-303.0
tp1785
tp1786
Rp1787
s(g1
(g2
g3
Ntp1788
Rp1789
(g18
I00
g19
I01
g91
I01
I00
tp1790
bg18
tp1791
g1
(g11
g12
(I0
F5.34
I2
F-333.0
tp1792
tp1793
Rp1794
s(g1
(g2
g3
Ntp1795
Rp1796
(g35
I00
g91
I00
g91
I00
I01
tp1797
bg21
tp1798
g1
(g11
g12
(I0
F5.76
I3
F-408.0
tp1799
tp1800
Rp1801
s(g1
(g2
g3
Ntp1802
Rp1803
(g253
I00
g469
I00
NNI01
tp1804
bg253
tp1805
g1
(g11
g12
(I2
F188.30999999999995
I91
F-395.1318681318681
tp1806
tp1807
Rp1808
s(g1
(g2
g3
Ntp1809
Rp1810
(g35
I01
g19
I00
g35
I01
I00
tp1811
bg21
tp1812
g1
(g11
g12
(I0
F2.84
I1
F-316.0
tp1813
tp1814
Rp1815
s(g1
(g2
g3
Ntp1816
Rp1817
(g202
I00
g66
I00
g172
I00
I00
tp1818
bg348
tp1819
g1
(g11
g12
(I0
F221.50000000000003
I73
F-296.57534246575347
tp1820
tp1821
Rp1822
s(g1
(g2
g3
Ntp1823
Rp1824
(g172
I00
g202
I00
g66
I00
I00
tp1825
bg67
tp1826
g1
(g11
g12
(I0
F218.1200000000001
I69
F-283.88405797101444
tp1827
tp1828
Rp1829
s(g1
(g2
g3
Ntp1830
Rp1831
(g142
I00
g141
I00
NNI00
tp1832
bg253
tp1833
g1
(g11
g12
(I0
F802.0899999999993
I585
F-464.2649572649573
tp1834
tp1835
Rp1836
s(g1
(g2
g3
Ntp1837
Rp1838
(g141
I00
g142
I01
NNI00
tp1839
bg544
tp1840
g1
(g11
g12
(I0
F116.92000000000004
I76
F-446.3289473684211
tp1841
tp1842
Rp1843
s(g1
(g2
g3
Ntp1844
Rp1845
(g19
I00
g91
I01
g91
I01
I00
tp1846
bg35
tp1847
g1
(g11
g12
(I0
F11.55
I4
F-311.25
tp1848
tp1849
Rp1850
s(g1
(g2
g3
Ntp1851
Rp1852
(g202
I00
g172
I00
g202
I00
I00
tp1853
bg67
tp1854
g1
(g11
g12
(I0
F70.71000000000001
I25
F-317.16
tp1855
tp1856
Rp1857
s(g1
(g2
g3
Ntp1858
Rp1859
(g67
I00
g66
I00
g202
I00
I00
tp1860
bg66
tp1861
g1
(g11
g12
(I1
F73.6
I25
F-305.59999999999997
tp1862
tp1863
Rp1864
s(g1
(g2
g3
Ntp1865
Rp1866
(g202
I01
g66
I01
NNI01
tp1867
bg172
tp1868
g1
(g11
g12
(I0
F29.67
I9
F-270.3333333333333
tp1869
tp1870
Rp1871
s(g1
(g2
g3
Ntp1872
Rp1873
(g18
I01
g91
I00
g35
I01
I00
tp1874
bg91
tp1875
g1
(g11
g12
(I0
F8.74
I3
F-308.6666666666667
tp1876
tp1877
Rp1878
s(g1
(g2
g3
Ntp1879
Rp1880
(g6
I01
NNNNI00
tp1881
bg7
tp1882
g1
(g11
g12
(I0
F97.65
I37
F-340.89189189189204
tp1883
tp1884
Rp1885
s(g1
(g2
g3
Ntp1886
Rp1887
(g35
I00
g91
I00
g91
I00
I00
tp1888
bg91
tp1889
g1
(g11
g12
(I0
F201.46
I76
F-335.06578947368405
tp1890
tp1891
Rp1892
s(g1
(g2
g3
Ntp1893
Rp1894
(g43
I00
g44
I00
g44
I00
I00
tp1895
bg277
tp1896
g1
(g11
g12
(I1
F120.83999999999999
I28
F-168.4285714285714
tp1897
tp1898
Rp1899
s(g1
(g2
g3
Ntp1900
Rp1901
(g504
I01
g672
I01
NNI00
tp1902
bg664
tp1903
g1
(g11
g12
(I0
F20.059999999999995
I16
F-474.625
tp1904
tp1905
Rp1906
s(g1
(g2
g3
Ntp1907
Rp1908
(g35
I01
g19
I01
NNI00
tp1909
bg19
tp1910
g1
(g11
g12
(I0
F15.63
I12
F-469.74999999999983
tp1911
tp1912
Rp1913
s(g1
(g2
g3
Ntp1914
Rp1915
(g91
I01
g91
I01
g35
I01
I00
tp1916
bg19
tp1917
g1
(g11
g12
(I0
F6.039999999999999
I2
F-298.0
tp1918
tp1919
Rp1920
s(g1
(g2
g3
Ntp1921
Rp1922
(g19
I01
g18
I01
NNI00
tp1923
bg21
tp1924
g1
(g11
g12
(I0
F110.46999999999996
I65
F-430.0461538461538
tp1925
tp1926
Rp1927
s(g1
(g2
g3
Ntp1928
Rp1929
(g505
I00
g672
I00
NNI01
tp1930
bg505
tp1931
g1
(g11
g12
(I0
F640.7499999999998
I278
F-370.30575539568366
tp1932
tp1933
Rp1934
s(g1
(g2
g3
Ntp1935
Rp1936
(g35
I01
g18
I00
g19
I00
I00
tp1937
bg35
tp1938
g1
(g11
g12
(I0
F3.12
I1
F-288.0
tp1939
tp1940
Rp1941
s(g1
(g2
g3
Ntp1942
Rp1943
(g180
I00
NNg558
I00
I00
tp1944
bg180
tp1945
g1
(g11
g12
(I2
F268.15999999999997
I90
F-303.2777777777777
tp1946
tp1947
Rp1948
s(g1
(g2
g3
Ntp1949
Rp1950
(g18
I00
g19
I00
g35
I00
I00
tp1951
bg21
tp1952
g1
(g11
g12
(I0
F2.14
I2
F-493.0
tp1953
tp1954
Rp1955
s(g1
(g2
g3
Ntp1956
Rp1957
(g35
I00
g18
I00
g35
I00
I00
tp1958
bg91
tp1959
g1
(g11
g12
(I0
F132.6
I45
F-305.3333333333332
tp1960
tp1961
Rp1962
s(g1
(g2
g3
Ntp1963
Rp1964
(g91
I00
g18
I00
g91
I00
I00
tp1965
bg19
tp1966
g1
(g11
g12
(I0
F29.95
I10
F-300.5
tp1967
tp1968
Rp1969
s(g1
(g2
g3
Ntp1970
Rp1971
(g19
I01
g91
I01
g91
I01
I01
tp1972
bg91
tp1973
g1
(g11
g12
(I0
F15.09
I5
F-298.2
tp1974
tp1975
Rp1976
s(g1
(g2
g3
Ntp1977
Rp1978
(g18
I01
g91
I00
g35
I01
I00
tp1979
bg35
tp1980
g1
(g11
g12
(I0
F8.9
I3
F-303.3333333333333
tp1981
tp1982
Rp1983
s(g1
(g2
g3
Ntp1984
Rp1985
(g202
I01
g172
I00
NNI00
tp1986
bg202
tp1987
g1
(g11
g12
(I0
F103.79999999999993
I70
F-451.7142857142858
tp1988
tp1989
Rp1990
s(g1
(g2
g3
Ntp1991
Rp1992
(g9
I01
g7
I00
NNI00
tp1993
bg9
tp1994
g1
(g11
g12
(I0
F199.03000000000006
I120
F-437.5333333333335
tp1995
tp1996
Rp1997
s(g1
(g2
g3
Ntp1998
Rp1999
(g9
I00
g7
I00
NNI00
tp2000
bg9
tp2001
g1
(g11
g12
(I35
F2972.099999999998
I1657
F-422.5534097767042
tp2002
tp2003
Rp2004
s(g1
(g2
g3
Ntp2005
Rp2006
(g370
I00
g370
I00
NNI01
tp2007
bg82
tp2008
g1
(g11
g12
(I1
F681.2200000000001
I359
F-411.9721448467964
tp2009
tp2010
Rp2011
s(g1
(g2
g3
Ntp2012
Rp2013
(g35
I01
g91
I01
g91
I01
I00
tp2014
bg18
tp2015
g1
(g11
g12
(I0
F2.77
I1
F-323.0
tp2016
tp2017
Rp2018
s(g1
(g2
g3
Ntp2019
Rp2020
(g558
I00
g558
I00
NNI00
tp2021
bg84
tp2022
g1
(g11
g12
(I0
F201.98
I80
F-347.71249999999986
tp2023
tp2024
Rp2025
s(g1
(g2
g3
Ntp2026
Rp2027
(g19
I00
g91
I00
g19
I00
I01
tp2028
bg18
tp2029
g1
(g11
g12
(I0
F8.68
I3
F-310.66666666666663
tp2030
tp2031
Rp2032
s(g1
(g2
g3
Ntp2033
Rp2034
(g82
I01
NNNNI00
tp2035
bg84
tp2036
g1
(g11
g12
(I1
F98.03000000000002
I24
F-193.45833333333334
tp2037
tp2038
Rp2039
s(g1
(g2
g3
Ntp2040
Rp2041
(g19
I01
g35
I01
NNI00
tp2042
bg21
tp2043
g1
(g11
g12
(I0
F13.49
I11
F-477.3636363636363
tp2044
tp2045
Rp2046
s(g1
(g2
g3
Ntp2047
Rp2048
(g19
I01
g91
I01
g35
I00
I00
tp2049
bg35
tp2050
g1
(g11
g12
(I0
F2.66
I1
F-334.0
tp2051
tp2052
Rp2053
s(g1
(g2
g3
Ntp2054
Rp2055
(g82
I00
g558
I01
NNI00
tp2056
bg558
tp2057
g1
(g11
g12
(I0
F132.33999999999997
I76
F-425.8684210526316
tp2058
tp2059
Rp2060
s(g1
(g2
g3
Ntp2061
Rp2062
(g19
I01
g35
I00
g18
I01
I00
tp2063
bg35
tp2064
g1
(g11
g12
(I0
F19.279999999999998
I6
F-278.6666666666667
tp2065
tp2066
Rp2067
s(g1
(g2
g3
Ntp2068
Rp2069
(g217
I01
g7
I00
NNI00
tp2070
bg151
tp2071
g1
(g11
g12
(I0
F88.83999999999997
I45
F-402.5777777777778
tp2072
tp2073
Rp2074
s(g1
(g2
g3
Ntp2075
Rp2076
(g18
I00
NNg91
I01
I01
tp2077
bg21
tp2078
g1
(g11
g12
(I0
F2.96
I1
F-304.0
tp2079
tp2080
Rp2081
s(g1
(g2
g3
Ntp2082
Rp2083
(g6
I00
NNg6
I00
I00
tp2084
bg217
tp2085
g1
(g11
g12
(I0
F186.74999999999991
I67
F-324.34328358208944
tp2086
tp2087
Rp2088
s(g1
(g2
g3
Ntp2089
Rp2090
(g9
I00
NNNNI00
tp2091
bg217
tp2092
g1
(g11
g12
(I1
F333.11999999999995
I105
F-283.94285714285695
tp2093
tp2094
Rp2095
s(g1
(g2
g3
Ntp2096
Rp2097
(g18
I01
NNg19
I00
I00
tp2098
bg21
tp2099
g1
(g11
g12
(I0
F3.23
I1
F-277.0
tp2100
tp2101
Rp2102
s(g1
(g2
g3
Ntp2103
Rp2104
(g469
I01
g141
I00
NNI00
tp2105
bg469
tp2106
g1
(g11
g12
(I0
F118.71999999999998
I102
F-483.68627450980404
tp2107
tp2108
Rp2109
s(g1
(g2
g3
Ntp2110
Rp2111
(g18
I01
g19
I01
NNI00
tp2112
bg19
tp2113
g1
(g11
g12
(I0
F32.43
I15
F-383.80000000000007
tp2114
tp2115
Rp2116
s(g1
(g2
g3
Ntp2117
Rp2118
(g19
I00
g91
I01
g91
I01
I00
tp2119
bg18
tp2120
g1
(g11
g12
(I0
F8.43
I3
F-319.0
tp2121
tp2122
Rp2123
s(g1
(g2
g3
Ntp2124
Rp2125
(g202
I01
g66
I00
g67
I00
I00
tp2126
bg348
tp2127
g1
(g11
g12
(I0
F3.24
I1
F-276.0
tp2128
tp2129
Rp2130
s(g1
(g2
g3
Ntp2131
Rp2132
(g82
I01
NNg82
I01
I00
tp2133
bg84
tp2134
g1
(g11
g12
(I0
F2.42
I1
F-358.0
tp2135
tp2136
Rp2137
s(g1
(g2
g3
Ntp2138
Rp2139
(g35
I00
g91
I01
g91
I01
I00
tp2140
bg21
tp2141
g1
(g11
g12
(I0
F5.6899999999999995
I2
F-315.5
tp2142
tp2143
Rp2144
s(g1
(g2
g3
Ntp2145
Rp2146
(g19
I00
g18
I01
g18
I01
I00
tp2147
bg35
tp2148
g1
(g11
g12
(I0
F20.29
I7
F-310.1428571428571
tp2149
tp2150
Rp2151
s(g1
(g2
g3
Ntp2152
Rp2153
(g67
I00
g66
I00
g67
I00
I00
tp2154
bg67
tp2155
g1
(g11
g12
(I3
F397.74
I121
F-271.62809917355384
tp2156
tp2157
Rp2158
s(g1
(g2
g3
Ntp2159
Rp2160
(g35
I01
g18
I00
g18
I00
I00
tp2161
bg18
tp2162
g1
(g11
g12
(I0
F9.79
I2
F-110.5
tp2163
tp2164
Rp2165
s(g1
(g2
g3
Ntp2166
Rp2167
(g19
I00
g35
I01
g18
I00
I00
tp2168
bg18
tp2169
g1
(g11
g12
(I0
F2.56
I1
F-344.0
tp2170
tp2171
Rp2172
s(g1
(g2
g3
Ntp2173
Rp2174
(g18
I01
g91
I00
NNI01
tp2175
bg19
tp2176
g1
(g11
g12
(I0
F6.15
I2
F-292.5
tp2177
tp2178
Rp2179
s(g1
(g2
g3
Ntp2180
Rp2181
(g6
I00
g6
I00
NNI00
tp2182
bg217
tp2183
g1
(g11
g12
(I1
F4142.7199999999975
I2808
F-454.3714387464379
tp2184
tp2185
Rp2186
s(g1
(g2
g3
Ntp2187
Rp2188
(g217
I01
g7
I00
NNI00
tp2189
bg6
tp2190
g1
(g11
g12
(I0
F71.22999999999999
I43
F-434.34883720930236
tp2191
tp2192
Rp2193
s(g1
(g2
g3
Ntp2194
Rp2195
(g19
I01
g91
I01
g91
I01
I00
tp2196
bg21
tp2197
g1
(g11
g12
(I0
F7.8500000000000005
I2
F-207.5
tp2198
tp2199
Rp2200
s(g1
(g2
g3
Ntp2201
Rp2202
(g18
I00
NNg19
I01
I00
tp2203
bg18
tp2204
g1
(g11
g12
(I0
F9.25
I2
F-137.5
tp2205
tp2206
Rp2207
s(g1
(g2
g3
Ntp2208
Rp2209
(g18
I01
NNg91
I00
I00
tp2210
bg91
tp2211
g1
(g11
g12
(I0
F8.47
I3
F-317.66666666666663
tp2212
tp2213
Rp2214
s(g1
(g2
g3
Ntp2215
Rp2216
(g18
I01
NNg19
I00
I00
tp2217
bg91
tp2218
g1
(g11
g12
(I0
F3.09
I1
F-291.0
tp2219
tp2220
Rp2221
s(g1
(g2
g3
Ntp2222
Rp2223
(g18
I00
g91
I00
g35
I01
I00
tp2224
bg21
tp2225
g1
(g11
g12
(I0
F11.83
I4
F-304.25
tp2226
tp2227
Rp2228
s(g1
(g2
g3
Ntp2229
Rp2230
(g91
I01
g91
I01
g91
I01
I00
tp2231
bg21
tp2232
g1
(g11
g12
(I0
F63.34
I19
F-266.6315789473684
tp2233
tp2234
Rp2235
s(g1
(g2
g3
Ntp2236
Rp2237
(g217
I01
g6
I00
NNI00
tp2238
bg9
tp2239
g1
(g11
g12
(I0
F412.46
I228
F-421.1578947368421
tp2240
tp2241
Rp2242
s(g1
(g2
g3
Ntp2243
Rp2244
(g82
I01
NNNNI00
tp2245
bg82
tp2246
g1
(g11
g12
(I0
F63.64
I20
F-281.79999999999995
tp2247
tp2248
Rp2249
s(g1
(g2
g3
Ntp2250
Rp2251
(g142
I00
NNg469
I01
I00
tp2252
bg142
tp2253
g1
(g11
g12
(I0
F0.28
I1
F-572.0
tp2254
tp2255
Rp2256
s(g1
(g2
g3
Ntp2257
Rp2258
(g6
I00
NNg6
I00
I00
tp2259
bg9
tp2260
g1
(g11
g12
(I0
F205.9
I67
F-293.5970149253732
tp2261
tp2262
Rp2263
s(g1
(g2
g3
Ntp2264
Rp2265
(g19
I01
g18
I00
g18
I00
I00
tp2266
bg19
tp2267
g1
(g11
g12
(I0
F12.059999999999999
I4
F-298.5
tp2268
tp2269
Rp2270
s(g1
(g2
g3
Ntp2271
Rp2272
(g82
I00
NNg180
I01
I00
tp2273
bg82
tp2274
g1
(g11
g12
(I0
F24.99
I9
F-322.3333333333333
tp2275
tp2276
Rp2277
s(g1
(g2
g3
Ntp2278
Rp2279
(g180
I00
g558
I00
NNI00
tp2280
bg180
tp2281
g1
(g11
g12
(I24
F3185.580000000002
I1606
F-403.6830635118306
tp2282
tp2283
Rp2284
s(g1
(g2
g3
Ntp2285
Rp2286
(g91
I01
NNg91
I01
I01
tp2287
bg19
tp2288
g1
(g11
g12
(I0
F5.15
I1
F-85.0
tp2289
tp2290
Rp2291
s(g1
(g2
g3
Ntp2292
Rp2293
(g19
I00
g91
I01
g19
I00
I00
tp2294
bg21
tp2295
g1
(g11
g12
(I0
F4.65
I1
F-135.0
tp2296
tp2297
Rp2298
s(g1
(g2
g3
Ntp2299
Rp2300
(g6
I01
NNg6
I01
I00
tp2301
bg151
tp2302
g1
(g11
g12
(I0
F12.81
I4
F-279.75
tp2303
tp2304
Rp2305
s(g1
(g2
g3
Ntp2306
Rp2307
(g35
I01
g18
I00
g18
I00
I00
tp2308
bg91
tp2309
g1
(g11
g12
(I0
F4.88
I1
F-112.0
tp2310
tp2311
Rp2312
s(g1
(g2
g3
Ntp2313
Rp2314
(g18
I00
g91
I00
g18
I00
I00
tp2315
bg19
tp2316
g1
(g11
g12
(I0
F231.66000000000005
I84
F-324.57142857142856
tp2317
tp2318
Rp2319
s(g1
(g2
g3
Ntp2320
Rp2321
(g142
I00
NNg469
I00
I01
tp2322
bg544
tp2323
g1
(g11
g12
(I0
F5.29
I2
F-335.5
tp2324
tp2325
Rp2326
s(g1
(g2
g3
Ntp2327
Rp2328
(g35
I00
g19
I00
g91
I00
I00
tp2329
bg19
tp2330
g1
(g11
g12
(I0
F26.130000000000003
I9
F-309.66666666666663
tp2331
tp2332
Rp2333
s(g1
(g2
g3
Ntp2334
Rp2335
(g91
I00
g19
I00
g91
I00
I00
tp2336
bg35
tp2337
g1
(g11
g12
(I0
F35.489999999999995
I11
F-277.3636363636364
tp2338
tp2339
Rp2340
s(g1
(g2
g3
Ntp2341
Rp2342
(g19
I01
g91
I00
g91
I00
I01
tp2343
bg91
tp2344
g1
(g11
g12
(I0
F55.730000000000004
I19
F-306.68421052631584
tp2345
tp2346
Rp2347
s(g1
(g2
g3
Ntp2348
Rp2349
(g687
I00
g514
I00
NNI00
tp2350
bg513
tp2351
g1
(g11
g12
(I1
F831.1400000000001
I596
F-462.9580536912751
tp2352
tp2353
Rp2354
s(g1
(g2
g3
Ntp2355
Rp2356
(g18
I01
g91
I00
g35
I01
I00
tp2357
bg21
tp2358
g1
(g11
g12
(I0
F8.83
I3
F-305.66666666666663
tp2359
tp2360
Rp2361
s(g1
(g2
g3
Ntp2362
Rp2363
(g19
I00
NNg91
I01
I01
tp2364
bg19
tp2365
g1
(g11
g12
(I0
F2.59
I1
F-341.0
tp2366
tp2367
Rp2368
s(g1
(g2
g3
Ntp2369
Rp2370
(g370
I00
NNg370
I00
I01
tp2371
bg370
tp2372
g1
(g11
g12
(I1
F171.17000000000002
I57
F-301.1052631578944
tp2373
tp2374
Rp2375
s(g1
(g2
g3
Ntp2376
Rp2377
(g35
I01
NNNNI01
tp2378
bg35
tp2379
g1
(g11
g12
(I0
F3.13
I1
F-287.0
tp2380
tp2381
Rp2382
s(g1
(g2
g3
Ntp2383
Rp2384
(g35
I01
g91
I00
g91
I00
I01
tp2385
bg35
tp2386
g1
(g11
g12
(I0
F3.26
I1
F-274.0
tp2387
tp2388
Rp2389
s(g1
(g2
g3
Ntp2390
Rp2391
(g6
I00
NNg217
I01
I00
tp2392
bg6
tp2393
g1
(g11
g12
(I1
F13.71
I3
F-143.0
tp2394
tp2395
Rp2396
s(g1
(g2
g3
Ntp2397
Rp2398
(g172
I00
g67
I00
g172
I00
I00
tp2399
bg67
tp2400
g1
(g11
g12
(I0
F515.31
I181
F-315.71823204419906
tp2401
tp2402
Rp2403
s(g1
(g2
g3
Ntp2404
Rp2405
(g82
I01
g370
I00
NNI00
tp2406
bg84
tp2407
g1
(g11
g12
(I0
F200.20999999999995
I126
F-442.1190476190478
tp2408
tp2409
Rp2410
s(g1
(g2
g3
Ntp2411
Rp2412
(g18
I00
g91
I01
NNI01
tp2413
bg19
tp2414
g1
(g11
g12
(I0
F16.459999999999997
I6
F-325.66666666666674
tp2415
tp2416
Rp2417
s(g1
(g2
g3
Ntp2418
Rp2419
(g18
I00
g91
I00
g35
I00
I00
tp2420
bg35
tp2421
g1
(g11
g12
(I1
F329.82000000000005
I118
F-321.237288135593
tp2422
tp2423
Rp2424
s(g1
(g2
g3
Ntp2425
Rp2426
(g514
I00
NNg927
I00
I00
tp2427
bg513
tp2428
g1
(g11
g12
(I0
F112.84000000000002
I30
F-223.86666666666665
tp2429
tp2430
Rp2431
s(g1
(g2
g3
Ntp2432
Rp2433
(g202
I00
g67
I00
g172
I00
I00
tp2434
bg202
tp2435
g1
(g11
g12
(I1
F792.82
I290
F-326.9344827586206
tp2436
tp2437
Rp2438
s(g1
(g2
g3
Ntp2439
Rp2440
(g18
I00
g91
I01
g18
I00
I00
tp2441
bg35
tp2442
g1
(g11
g12
(I0
F5.03
I1
F-97.0
tp2443
tp2444
Rp2445
s(g1
(g2
g3
Ntp2446
Rp2447
(g18
I00
g19
I00
g35
I00
I00
tp2448
bg91
tp2449
g1
(g11
g12
(I0
F5.390000000000001
I2
F-330.5
tp2450
tp2451
Rp2452
s(g1
(g2
g3
Ntp2453
Rp2454
(g91
I00
g19
I00
g35
I00
I00
tp2455
bg19
tp2456
g1
(g11
g12
(I0
F2.9
I1
F-310.0
tp2457
tp2458
Rp2459
s(g1
(g2
g3
Ntp2460
Rp2461
(g6
I01
NNNNI00
tp2462
bg151
tp2463
g1
(g11
g12
(I0
F120.18999999999997
I38
F-283.7105263157895
tp2464
tp2465
Rp2466
s(g1
(g2
g3
Ntp2467
Rp2468
(g172
I00
g172
I00
g67
I00
I00
tp2469
bg67
tp2470
g1
(g11
g12
(I0
F167.58999999999995
I60
F-322.9999999999999
tp2471
tp2472
Rp2473
s(g1
(g2
g3
Ntp2474
Rp2475
(g35
I00
g19
I00
g18
I00
I00
tp2476
bg18
tp2477
g1
(g11
g12
(I0
F8.87
I3
F-304.3333333333333
tp2478
tp2479
Rp2480
s(g1
(g2
g3
Ntp2481
Rp2482
(g217
I00
g7
I01
NNI00
tp2483
bg151
tp2484
g1
(g11
g12
(I0
F196.89000000000004
I108
F-417.8518518518519
tp2485
tp2486
Rp2487
s(g1
(g2
g3
Ntp2488
Rp2489
(g35
I01
g91
I00
g18
I00
I00
tp2490
bg35
tp2491
g1
(g11
g12
(I0
F3.16
I1
F-284.0
tp2492
tp2493
Rp2494
s(g1
(g2
g3
Ntp2495
Rp2496
(g18
I01
g91
I01
NNI00
tp2497
bg18
tp2498
g1
(g11
g12
(I0
F18.68
I15
F-475.46666666666664
tp2499
tp2500
Rp2501
s(g1
(g2
g3
Ntp2502
Rp2503
(g19
I01
g91
I00
g35
I00
I00
tp2504
bg18
tp2505
g1
(g11
g12
(I0
F3.19
I1
F-281.0
tp2506
tp2507
Rp2508
s(g1
(g2
g3
Ntp2509
Rp2510
(g35
I00
g35
I00
g18
I00
I00
tp2511
bg91
tp2512
g1
(g11
g12
(I0
F3.16
I1
F-284.0
tp2513
tp2514
Rp2515
s(g1
(g2
g3
Ntp2516
Rp2517
(g6
I00
g7
I01
NNI00
tp2518
bg6
tp2519
g1
(g11
g12
(I0
F288.5099999999999
I204
F-462.666666666667
tp2520
tp2521
Rp2522
s(g1
(g2
g3
Ntp2523
Rp2524
(g18
I00
g35
I00
g19
I00
I00
tp2525
bg18
tp2526
g1
(g11
g12
(I0
F37.14
I13
F-314.3076923076923
tp2527
tp2528
Rp2529
s(g1
(g2
g3
Ntp2530
Rp2531
(g67
I00
g67
I00
NNI00
tp2532
bg66
tp2533
g1
(g11
g12
(I1
F53.76
I36
F-451.22222222222234
tp2534
tp2535
Rp2536
s(g1
(g2
g3
Ntp2537
Rp2538
(g18
I00
g19
I00
g35
I00
I00
tp2539
bg35
tp2540
g1
(g11
g12
(I0
F11.93
I3
F-202.33333333333334
tp2541
tp2542
Rp2543
s(g1
(g2
g3
Ntp2544
Rp2545
(g6
I00
NNg217
I00
I00
tp2546
bg9
tp2547
g1
(g11
g12
(I0
F91.1
I27
F-265.5555555555555
tp2548
tp2549
Rp2550
s(g1
(g2
g3
Ntp2551
Rp2552
(g469
I01
g469
I01
NNI01
tp2553
bg141
tp2554
g1
(g11
g12
(I1
F268.55999999999995
I128
F-392.7031250000003
tp2555
tp2556
Rp2557
s(g1
(g2
g3
Ntp2558
Rp2559
(g9
I01
NNNNI00
tp2560
bg7
tp2561
g1
(g11
g12
(I0
F118.1
I30
F-208.3666666666667
tp2562
tp2563
Rp2564
s(g1
(g2
g3
Ntp2565
Rp2566
(g35
I01
g35
I01
g18
I00
I00
tp2567
bg21
tp2568
g1
(g11
g12
(I0
F3.07
I1
F-293.0
tp2569
tp2570
Rp2571
s(g1
(g2
g3
Ntp2572
Rp2573
(g18
I00
g19
I01
g91
I01
I00
tp2574
bg35
tp2575
g1
(g11
g12
(I0
F4.96
I1
F-104.0
tp2576
tp2577
Rp2578
s(g1
(g2
g3
Ntp2579
Rp2580
(g19
I01
g19
I01
g91
I01
I00
tp2581
bg35
tp2582
g1
(g11
g12
(I0
F3.0
I1
F-300.0
tp2583
tp2584
Rp2585
s(g1
(g2
g3
Ntp2586
Rp2587
(g687
I00
g513
I00
NNI01
tp2588
bS'Stop'
p2589
tp2590
g1
(g11
g12
(I1
F42.93000000000001
I29
F-460.68965517241367
tp2591
tp2592
Rp2593
s(g1
(g2
g3
Ntp2594
Rp2595
(g18
I00
g19
I01
g19
I01
I00
tp2596
bg35
tp2597
g1
(g11
g12
(I0
F2.13
I1
F-387.0
tp2598
tp2599
Rp2600
s(g1
(g2
g3
Ntp2601
Rp2602
(g35
I01
g18
I00
g35
I01
I00
tp2603
bg35
tp2604
g1
(g11
g12
(I0
F2.94
I1
F-306.0
tp2605
tp2606
Rp2607
s(g1
(g2
g3
Ntp2608
Rp2609
(g43
I00
g43
I00
g1067
I00
I00
tp2610
bg275
tp2611
g1
(g11
g12
(I1
F362.1
I120
F-299.1583333333335
tp2612
tp2613
Rp2614
s(g1
(g2
g3
Ntp2615
Rp2616
(g91
I00
g91
I00
g18
I00
I00
tp2617
bg91
tp2618
g1
(g11
g12
(I3
F902.6300000000002
I309
F-308.09061488673126
tp2619
tp2620
Rp2621
s(g1
(g2
g3
Ntp2622
Rp2623
(g18
I00
NNNNI01
tp2624
bg91
tp2625
g1
(g11
g12
(I0
F19.51
I9
F-383.55555555555554
tp2626
tp2627
Rp2628
s(g1
(g2
g3
Ntp2629
Rp2630
(g505
I00
NNg505
I00
I00
tp2631
bg504
tp2632
g1
(g11
g12
(I0
F66.2
I19
F-251.57894736842107
tp2633
tp2634
Rp2635
s(g1
(g2
g3
Ntp2636
Rp2637
(g7
I00
g6
I00
NNI00
tp2638
bg151
tp2639
g1
(g11
g12
(I5
F3108.0600000000063
I1899
F-437.4497103738794
tp2640
tp2641
Rp2642
s(g1
(g2
g3
Ntp2643
Rp2644
(g35
I00
g18
I00
g19
I00
I00
tp2645
bg91
tp2646
g1
(g11
g12
(I0
F44.080000000000005
I14
F-285.1428571428572
tp2647
tp2648
Rp2649
s(g1
(g2
g3
Ntp2650
Rp2651
(g35
I01
g91
I00
g91
I00
I00
tp2652
bg91
tp2653
g1
(g11
g12
(I0
F2.96
I1
F-304.0
tp2654
tp2655
Rp2656
s(g1
(g2
g3
Ntp2657
Rp2658
(g19
I00
g35
I00
g19
I00
I00
tp2659
bg21
tp2660
g1
(g11
g12
(I0
F52.45
I15
F-250.33333333333331
tp2661
tp2662
Rp2663
s(g1
(g2
g3
Ntp2664
Rp2665
(g19
I01
g91
I00
g19
I01
I00
tp2666
bg21
tp2667
g1
(g11
g12
(I0
F2.89
I1
F-311.0
tp2668
tp2669
Rp2670
s(g1
(g2
g3
Ntp2671
Rp2672
(g91
I01
g18
I00
g18
I00
I00
tp2673
bg35
tp2674
g1
(g11
g12
(I0
F2.79
I1
F-321.0
tp2675
tp2676
Rp2677
s(g1
(g2
g3
Ntp2678
Rp2679
(g18
I00
g91
I01
g91
I01
I00
tp2680
bg35
tp2681
g1
(g11
g12
(I0
F32.45
I11
F-305.0
tp2682
tp2683
Rp2684
s(g1
(g2
g3
Ntp2685
Rp2686
(g1067
I00
g1067
I00
g1067
I00
I00
tp2687
bg277
tp2688
g1
(g11
g12
(I1
F90.01999999999998
I14
F42.99999999999992
tp2689
tp2690
Rp2691
s(g1
(g2
g3
Ntp2692
Rp2693
(g66
I00
g172
I00
g67
I00
I00
tp2694
bg66
tp2695
g1
(g11
g12
(I0
F161.70000000000007
I59
F-325.93220338983025
tp2696
tp2697
Rp2698
s(g1
(g2
g3
Ntp2699
Rp2700
(g35
I01
g91
I00
g18
I01
I00
tp2701
bg35
tp2702
g1
(g11
g12
(I0
F2.98
I1
F-302.0
tp2703
tp2704
Rp2705
s(g1
(g2
g3
Ntp2706
Rp2707
(g35
I01
g19
I01
NNI00
tp2708
bg35
tp2709
g1
(g11
g12
(I0
F13.449999999999998
I13
F-496.5384615384615
tp2710
tp2711
Rp2712
s(g1
(g2
g3
Ntp2713
Rp2714
(g514
I00
NNg687
I00
I00
tp2715
bg927
tp2716
g1
(g11
g12
(I1
F64.38000000000001
I20
F-280.15
tp2717
tp2718
Rp2719
s(g1
(g2
g3
Ntp2720
Rp2721
(g35
I00
g91
I01
g35
I00
I00
tp2722
bg91
tp2723
g1
(g11
g12
(I0
F2.94
I1
F-306.0
tp2724
tp2725
Rp2726
s(g1
(g2
g3
Ntp2727
Rp2728
(g91
I01
g91
I01
g35
I00
I00
tp2729
bg35
tp2730
g1
(g11
g12
(I0
F14.219999999999999
I4
F-244.5
tp2731
tp2732
Rp2733
s(g1
(g2
g3
Ntp2734
Rp2735
(g141
I01
NNg141
I01
I00
tp2736
bg142
tp2737
g1
(g11
g12
(I0
F0.47
I1
F-553.0
tp2738
tp2739
Rp2740
s(g1
(g2
g3
Ntp2741
Rp2742
(g19
I01
NNg91
I00
I00
tp2743
bg91
tp2744
g1
(g11
g12
(I0
F16.0
I3
F-66.66666666666666
tp2745
tp2746
Rp2747
s(g1
(g2
g3
Ntp2748
Rp2749
(g6
I00
NNg6
I00
I00
tp2750
bg6
tp2751
g1
(g11
g12
(I8
F588.1399999999998
I166
F-247.0481927710845
tp2752
tp2753
Rp2754
s(g1
(g2
g3
Ntp2755
Rp2756
(g35
I01
g19
I00
g35
I01
I00
tp2757
bg35
tp2758
g1
(g11
g12
(I0
F2.8
I1
F-320.0
tp2759
tp2760
Rp2761
s(g1
(g2
g3
Ntp2762
Rp2763
(g18
I00
g91
I00
g91
I00
I01
tp2764
bg18
tp2765
g1
(g11
g12
(I0
F40.699999999999996
I19
F-392.2105263157894
tp2766
tp2767
Rp2768
s(g1
(g2
g3
Ntp2769
Rp2770
(g66
I01
g66
I01
g66
I01
I00
tp2771
bg67
tp2772
g1
(g11
g12
(I1
F72.68
I21
F-253.9047619047619
tp2773
tp2774
Rp2775
s(g1
(g2
g3
Ntp2776
Rp2777
(g6
I00
NNNNI00
tp2778
bg9
tp2779
g1
(g11
g12
(I1
F443.6599999999998
I148
F-300.41891891891953
tp2780
tp2781
Rp2782
s(g1
(g2
g3
Ntp2783
Rp2784
(g67
I00
g172
I01
NNI00
tp2785
bg66
tp2786
g1
(g11
g12
(I0
F63.92999999999999
I34
F-411.97058823529414
tp2787
tp2788
Rp2789
s(g1
(g2
g3
Ntp2790
Rp2791
(g469
I00
NNg469
I00
I01
tp2792
bg253
tp2793
g1
(g11
g12
(I1
F68.63
I19
F-238.78947368421052
tp2794
tp2795
Rp2796
s(g1
(g2
g3
Ntp2797
Rp2798
(g9
I00
g217
I01
NNI00
tp2799
bg217
tp2800
g1
(g11
g12
(I0
F72.49000000000001
I59
F-477.13559322033893
tp2801
tp2802
Rp2803
s(g1
(g2
g3
Ntp2804
Rp2805
(g180
I00
NNg558
I01
I00
tp2806
bg84
tp2807
g1
(g11
g12
(I0
F2.01
I1
F-399.0
tp2808
tp2809
Rp2810
s(g1
(g2
g3
Ntp2811
Rp2812
(g91
I00
g18
I01
g18
I01
I00
tp2813
bg91
tp2814
g1
(g11
g12
(I0
F5.9
I2
F-305.0
tp2815
tp2816
Rp2817
s(g1
(g2
g3
Ntp2818
Rp2819
(g35
I00
g91
I00
g18
I00
I00
tp2820
bg19
tp2821
g1
(g11
g12
(I1
F97.03000000000002
I36
F-331.61111111111103
tp2822
tp2823
Rp2824
s(g1
(g2
g3
Ntp2825
Rp2826
(g19
I00
g35
I00
g91
I00
I00
tp2827
bg91
tp2828
g1
(g11
g12
(I0
F2.86
I1
F-314.0
tp2829
tp2830
Rp2831
s(g1
(g2
g3
Ntp2832
Rp2833
(g217
I01
g7
I01
NNI00
tp2834
bg151
tp2835
g1
(g11
g12
(I1
F38.54
I17
F-373.29411764705884
tp2836
tp2837
Rp2838
s(g1
(g2
g3
Ntp2839
Rp2840
(g253
I00
g142
I01
NNI00
tp2841
bg141
tp2842
g1
(g11
g12
(I0
F87.09000000000002
I58
F-452.7413793103447
tp2843
tp2844
Rp2845
s(g1
(g2
g3
Ntp2846
Rp2847
(g172
I00
g67
I00
NNI00
tp2848
bg66
tp2849
g1
(g11
g12
(I2
F301.27000000000004
I182
F-436.637362637363
tp2850
tp2851
Rp2852
s(g1
(g2
g3
Ntp2853
Rp2854
(g91
I00
g91
I00
g18
I00
I01
tp2855
bg19
tp2856
g1
(g11
g12
(I0
F4.89
I1
F-111.0
tp2857
tp2858
Rp2859
s(g1
(g2
g3
Ntp2860
Rp2861
(g82
I01
g370
I01
NNI00
tp2862
bg370
tp2863
g1
(g11
g12
(I0
F118.93999999999998
I106
F-489.4905660377358
tp2864
tp2865
Rp2866
s(g1
(g2
g3
Ntp2867
Rp2868
(g91
I01
g91
I01
g35
I01
I00
tp2869
bg91
tp2870
g1
(g11
g12
(I0
F5.35
I2
F-332.5
tp2871
tp2872
Rp2873
s(g1
(g2
g3
Ntp2874
Rp2875
(g82
I00
g558
I00
NNI00
tp2876
bg82
tp2877
g1
(g11
g12
(I4
F2632.340000000003
I1400
F-412.7242857142862
tp2878
tp2879
Rp2880
s(g1
(g2
g3
Ntp2881
Rp2882
(g19
I00
g35
I01
g18
I01
I00
tp2883
bg19
tp2884
g1
(g11
g12
(I0
F3.23
I1
F-277.0
tp2885
tp2886
Rp2887
s(g1
(g2
g3
Ntp2888
Rp2889
(g217
I00
g6
I00
NNI00
tp2890
bg6
tp2891
g1
(g11
g12
(I3
F4914.179999999998
I2759
F-422.707140268213
tp2892
tp2893
Rp2894
s(g1
(g2
g3
Ntp2895
Rp2896
(g19
I00
g91
I00
g19
I00
I01
tp2897
bg19
tp2898
g1
(g11
g12
(I0
F38.9
I10
F-210.99999999999997
tp2899
tp2900
Rp2901
s(g1
(g2
g3
Ntp2902
Rp2903
(g217
I00
g6
I01
NNI00
tp2904
bg6
tp2905
g1
(g11
g12
(I0
F639.1200000000003
I464
F-464.92672413793156
tp2906
tp2907
Rp2908
s(g1
(g2
g3
Ntp2909
Rp2910
(g35
I01
g19
I01
NNI00
tp2911
bg18
tp2912
g1
(g11
g12
(I0
F11.690000000000001
I12
F-502.58333333333326
tp2913
tp2914
Rp2915
s(g1
(g2
g3
Ntp2916
Rp2917
(g35
I01
g35
I01
NNI00
tp2918
bg18
tp2919
g1
(g11
g12
(I1
F29.639999999999997
I11
F-330.5454545454545
tp2920
tp2921
Rp2922
s(g1
(g2
g3
Ntp2923
Rp2924
(g9
I00
NNg6
I00
I01
tp2925
bg9
tp2926
g1
(g11
g12
(I1
F30.14
I6
F-111.00000000000001
tp2927
tp2928
Rp2929
s(g1
(g2
g3
Ntp2930
Rp2931
(g202
I01
g66
I00
g66
I00
I00
tp2932
bg67
tp2933
g1
(g11
g12
(I1
F68.51
I18
F-219.38888888888886
tp2934
tp2935
Rp2936
s(g1
(g2
g3
Ntp2937
Rp2938
(g35
I01
g91
I00
g91
I00
I00
tp2939
bg18
tp2940
g1
(g11
g12
(I0
F3.14
I1
F-286.0
tp2941
tp2942
Rp2943
s(g1
(g2
g3
Ntp2944
Rp2945
(g35
I01
g35
I01
g18
I01
I00
tp2946
bg21
tp2947
g1
(g11
g12
(I0
F9.05
I3
F-298.3333333333333
tp2948
tp2949
Rp2950
s(g1
(g2
g3
Ntp2951
Rp2952
(g91
I01
g91
I01
g35
I00
I00
tp2953
bg91
tp2954
g1
(g11
g12
(I0
F10.61
I3
F-246.33333333333331
tp2955
tp2956
Rp2957
s(g1
(g2
g3
Ntp2958
Rp2959
(g91
I00
g19
I00
g18
I01
I00
tp2960
bg35
tp2961
g1
(g11
g12
(I0
F5.22
I1
F-78.0
tp2962
tp2963
Rp2964
s(g1
(g2
g3
Ntp2965
Rp2966
(g370
I00
NNg558
I00
I00
tp2967
bg558
tp2968
g1
(g11
g12
(I0
F102.74000000000001
I29
F-245.72413793103445
tp2969
tp2970
Rp2971
s(g1
(g2
g3
Ntp2972
Rp2973
(g253
I00
g141
I01
NNI00
tp2974
bg469
tp2975
g1
(g11
g12
(I0
F161.28000000000003
I108
F-454.38888888888886
tp2976
tp2977
Rp2978
s(g1
(g2
g3
Ntp2979
Rp2980
(g9
I00
NNg7
I01
I00
tp2981
bg9
tp2982
g1
(g11
g12
(I1
F10.94
I2
F-93.0
tp2983
tp2984
Rp2985
s(g1
(g2
g3
Ntp2986
Rp2987
(g6
I01
g6
I01
NNI00
tp2988
bg151
tp2989
g1
(g11
g12
(I0
F1303.2700000000007
I1001
F-473.3456543456549
tp2990
tp2991
Rp2992
s(g1
(g2
g3
Ntp2993
Rp2994
(g35
I00
g91
I01
g35
I00
I00
tp2995
bg35
tp2996
g1
(g11
g12
(I0
F8.43
I3
F-319.0
tp2997
tp2998
Rp2999
s(g1
(g2
g3
Ntp3000
Rp3001
(g6
I00
g7
I00
NNI00
tp3002
bg151
tp3003
g1
(g11
g12
(I1
F2703.790000000004
I1885
F-457.58885941644456
tp3004
tp3005
Rp3006
s(g1
(g2
g3
Ntp3007
Rp3008
(g35
I00
g35
I00
g18
I00
I00
tp3009
bg18
tp3010
g1
(g11
g12
(I0
F93.78999999999999
I36
F-339.4722222222221
tp3011
tp3012
Rp3013
s(g1
(g2
g3
Ntp3014
Rp3015
(g7
I00
g6
I01
NNI00
tp3016
bg7
tp3017
g1
(g11
g12
(I3
F483.1899999999999
I318
F-449.49371069182416
tp3018
tp3019
Rp3020
s(g1
(g2
g3
Ntp3021
Rp3022
(g9
I00
NNg217
I00
I00
tp3023
bg9
tp3024
g1
(g11
g12
(I7
F285.0799999999999
I60
F-125.94999999999995
tp3025
tp3026
Rp3027
s(g1
(g2
g3
Ntp3028
Rp3029
(g19
I01
NNNNI01
tp3030
bg91
tp3031
g1
(g11
g12
(I0
F0.84
I1
F-516.0
tp3032
tp3033
Rp3034
s(g1
(g2
g3
Ntp3035
Rp3036
(g19
I00
g18
I01
NNI00
tp3037
bg21
tp3038
g1
(g11
g12
(I0
F224.26000000000005
I145
F-445.3379310344832
tp3039
tp3040
Rp3041
s(g1
(g2
g3
Ntp3042
Rp3043
(g82
I00
NNg370
I00
I00
tp3044
bg84
tp3045
g1
(g11
g12
(I0
F113.08999999999999
I42
F-332.26190476190493
tp3046
tp3047
Rp3048
s(g1
(g2
g3
Ntp3049
Rp3050
(g35
I00
g91
I00
g18
I01
I00
tp3051
bg35
tp3052
g1
(g11
g12
(I0
F8.26
I2
F-187.0
tp3053
tp3054
Rp3055
s(g1
(g2
g3
Ntp3056
Rp3057
(g91
I01
g19
I01
NNI00
tp3058
bg35
tp3059
g1
(g11
g12
(I0
F44.92999999999999
I40
F-487.67500000000007
tp3060
tp3061
Rp3062
s(g1
(g2
g3
Ntp3063
Rp3064
(g172
I01
g67
I01
g67
I01
I00
tp3065
bg172
tp3066
g1
(g11
g12
(I1
F13.99
I1
F799.0
tp3067
tp3068
Rp3069
s(g1
(g2
g3
Ntp3070
Rp3071
(g19
I01
g91
I00
g35
I00
I00
tp3072
bg35
tp3073
g1
(g11
g12
(I0
F6.04
I2
F-298.0
tp3074
tp3075
Rp3076
s(g1
(g2
g3
Ntp3077
Rp3078
(g18
I00
g91
I01
g35
I00
I00
tp3079
bg21
tp3080
g1
(g11
g12
(I0
F3.11
I1
F-289.0
tp3081
tp3082
Rp3083
s(g1
(g2
g3
Ntp3084
Rp3085
(g19
I00
g35
I00
g18
I01
I00
tp3086
bg35
tp3087
g1
(g11
g12
(I0
F27.830000000000002
I9
F-290.77777777777777
tp3088
tp3089
Rp3090
s(g1
(g2
g3
Ntp3091
Rp3092
(g19
I00
g19
I00
g35
I00
I00
tp3093
bg35
tp3094
g1
(g11
g12
(I0
F47.38000000000001
I16
F-303.875
tp3095
tp3096
Rp3097
s(g1
(g2
g3
Ntp3098
Rp3099
(g19
I01
g18
I01
g18
I01
I00
tp3100
bg35
tp3101
g1
(g11
g12
(I0
F11.23
I4
F-319.25
tp3102
tp3103
Rp3104
s(g1
(g2
g3
Ntp3105
Rp3106
(g370
I00
NNg82
I00
I00
tp3107
bg370
tp3108
g1
(g11
g12
(I0
F114.06000000000002
I31
F-234.1612903225806
tp3109
tp3110
Rp3111
s(g1
(g2
g3
Ntp3112
Rp3113
(g18
I01
g19
I00
g19
I00
I00
tp3114
bg91
tp3115
g1
(g11
g12
(I0
F5.9399999999999995
I2
F-303.0
tp3116
tp3117
Rp3118
s(g1
(g2
g3
Ntp3119
Rp3120
(g19
I01
g35
I00
g35
I00
I00
tp3121
bg21
tp3122
g1
(g11
g12
(I0
F4.92
I1
F-108.0
tp3123
tp3124
Rp3125
s(g1
(g2
g3
Ntp3126
Rp3127
(g18
I00
g35
I01
g18
I00
I00
tp3128
bg35
tp3129
g1
(g11
g12
(I0
F15.000000000000002
I5
F-300.0
tp3130
tp3131
Rp3132
s(g1
(g2
g3
Ntp3133
Rp3134
(g19
I01
g91
I01
g91
I01
I01
tp3135
bg21
tp3136
g1
(g11
g12
(I0
F17.45
I6
F-309.1666666666667
tp3137
tp3138
Rp3139
s(g1
(g2
g3
Ntp3140
Rp3141
(g19
I01
g18
I00
g19
I01
I00
tp3142
bg35
tp3143
g1
(g11
g12
(I0
F2.4
I1
F-360.0
tp3144
tp3145
Rp3146
s(g1
(g2
g3
Ntp3147
Rp3148
(g18
I01
g35
I01
g18
I01
I00
tp3149
bg21
tp3150
g1
(g11
g12
(I0
F21.4
I7
F-294.28571428571433
tp3151
tp3152
Rp3153
s(g1
(g2
g3
Ntp3154
Rp3155
(g91
I00
g91
I00
g35
I00
I00
tp3156
bg19
tp3157
g1
(g11
g12
(I0
F355.59
I127
F-320.6614173228348
tp3158
tp3159
Rp3160
s(g1
(g2
g3
Ntp3161
Rp3162
(g67
I00
g66
I00
g172
I00
I00
tp3163
bg172
tp3164
g1
(g11
g12
(I1
F117.92
I37
F-281.29729729729735
tp3165
tp3166
Rp3167
s(g1
(g2
g3
Ntp3168
Rp3169
(g558
I00
NNg370
I00
I00
tp3170
bg558
tp3171
g1
(g11
g12
(I9
F239.9399999999999
I45
F-66.79999999999995
tp3172
tp3173
Rp3174
s(g1
(g2
g3
Ntp3175
Rp3176
(g66
I00
g172
I00
g66
I00
I00
tp3177
bg67
tp3178
g1
(g11
g12
(I0
F36.78
I11
F-265.6363636363636
tp3179
tp3180
Rp3181
s(g1
(g2
g3
Ntp3182
Rp3183
(g35
I01
g19
I01
NNI00
tp3184
bg21
tp3185
g1
(g11
g12
(I0
F21.04
I13
F-438.15384615384613
tp3186
tp3187
Rp3188
s(g1
(g2
g3
Ntp3189
Rp3190
(g217
I00
g217
I00
NNI00
tp3191
bg7
tp3192
g1
(g11
g12
(I2
F1684.4200000000012
I656
F-345.2286585365851
tp3193
tp3194
Rp3195
s(g1
(g2
g3
Ntp3196
Rp3197
(g18
I01
NNg35
I00
I00
tp3198
bg91
tp3199
g1
(g11
g12
(I0
F2.72
I1
F-328.0
tp3200
tp3201
Rp3202
s(g1
(g2
g3
Ntp3203
Rp3204
(g91
I00
g91
I00
g35
I01
I00
tp3205
bg21
tp3206
g1
(g11
g12
(I0
F31.82
I10
F-281.8
tp3207
tp3208
Rp3209
s(g1
(g2
g3
Ntp3210
Rp3211
(g19
I00
g18
I01
g35
I00
I00
tp3212
bg19
tp3213
g1
(g11
g12
(I0
F7.93
I2
F-203.5
tp3214
tp3215
Rp3216
s(g1
(g2
g3
Ntp3217
Rp3218
(g19
I01
g91
I00
g91
I00
I00
tp3219
bg91
tp3220
g1
(g11
g12
(I0
F48.95
I16
F-294.0625
tp3221
tp3222
Rp3223
s(g1
(g2
g3
Ntp3224
Rp3225
(g19
I01
g91
I00
g91
I00
I01
tp3226
bg19
tp3227
g1
(g11
g12
(I0
F60.330000000000005
I19
F-282.4736842105263
tp3228
tp3229
Rp3230
s(g1
(g2
g3
Ntp3231
Rp3232
(g6
I00
NNNNI00
tp3233
bg151
tp3234
g1
(g11
g12
(I1
F457.32999999999987
I148
F-292.452702702703
tp3235
tp3236
Rp3237
s(g1
(g2
g3
Ntp3238
Rp3239
(g9
I00
NNg217
I01
I00
tp3240
bg9
tp3241
g1
(g11
g12
(I0
F5.609999999999999
I3
F-439.6666666666667
tp3242
tp3243
Rp3244
s(g1
(g2
g3
Ntp3245
Rp3246
(g18
I01
NNg91
I00
I00
tp3247
bg35
tp3248
g1
(g11
g12
(I0
F12.990000000000002
I3
F-167.0
tp3249
tp3250
Rp3251
s(g1
(g2
g3
Ntp3252
Rp3253
(g91
I00
g35
I00
NNI00
tp3254
bg21
tp3255
g1
(g11
g12
(I1
F24.9
I9
F-323.3333333333333
tp3256
tp3257
Rp3258
s(g1
(g2
g3
Ntp3259
Rp3260
(g18
I01
NNg35
I01
I00
tp3261
bg35
tp3262
g1
(g11
g12
(I0
F4.85
I1
F-115.0
tp3263
tp3264
Rp3265
s(g1
(g2
g3
Ntp3266
Rp3267
(g370
I00
NNg82
I00
I00
tp3268
bg180
tp3269
g1
(g11
g12
(I0
F51.56
I13
F-206.69230769230768
tp3270
tp3271
Rp3272
s(g1
(g2
g3
Ntp3273
Rp3274
(g91
I00
g18
I01
g18
I01
I00
tp3275
bg21
tp3276
g1
(g11
g12
(I0
F3.9
I1
F-210.0
tp3277
tp3278
Rp3279
s(g1
(g2
g3
Ntp3280
Rp3281
(g6
I00
NNNNI01
tp3282
bg151
tp3283
g1
(g11
g12
(I0
F127.10999999999993
I52
F-357.63461538461524
tp3284
tp3285
Rp3286
s(g1
(g2
g3
Ntp3287
Rp3288
(g217
I00
g7
I00
NNI00
tp3289
bg7
tp3290
g1
(g11
g12
(I0
F1172.5000000000005
I449
F-339.6213808463249
tp3291
tp3292
Rp3293
s(g1
(g2
g3
Ntp3294
Rp3295
(g9
I00
NNg9
I00
I00
tp3296
bg217
tp3297
g1
(g11
g12
(I0
F90.92999999999999
I34
F-332.5588235294118
tp3298
tp3299
Rp3300
s(g1
(g2
g3
Ntp3301
Rp3302
(g91
I01
g19
I01
g19
I01
I00
tp3303
bg21
tp3304
g1
(g11
g12
(I0
F3.05
I1
F-295.0
tp3305
tp3306
Rp3307
s(g1
(g2
g3
Ntp3308
Rp3309
(g180
I00
NNg180
I00
I00
tp3310
bg370
tp3311
g1
(g11
g12
(I0
F288.68999999999994
I90
F-280.22222222222234
tp3312
tp3313
Rp3314
s(g1
(g2
g3
Ntp3315
Rp3316
(g43
I00
g44
I00
g1067
I00
I00
tp3317
bg44
tp3318
g1
(g11
g12
(I0
F30.199999999999996
I9
F-264.4444444444444
tp3319
tp3320
Rp3321
s(g1
(g2
g3
Ntp3322
Rp3323
(g44
I00
g275
I00
g275
I00
I00
tp3324
bg277
tp3325
g1
(g11
g12
(I0
F62.83
I21
F-300.80952380952374
tp3326
tp3327
Rp3328
s(g1
(g2
g3
Ntp3329
Rp3330
(g91
I00
g18
I00
g18
I00
I00
tp3331
bg35
tp3332
g1
(g11
g12
(I0
F79.19
I25
F-283.23999999999995
tp3333
tp3334
Rp3335
s(g1
(g2
g3
Ntp3336
Rp3337
(g180
I01
NNg180
I01
I00
tp3338
bg370
tp3339
g1
(g11
g12
(I0
F25.9
I6
F-168.33333333333334
tp3340
tp3341
Rp3342
s(g1
(g2
g3
Ntp3343
Rp3344
(g91
I01
g18
I00
g35
I00
I00
tp3345
bg19
tp3346
g1
(g11
g12
(I0
F7.449999999999999
I2
F-227.5
tp3347
tp3348
Rp3349
s(g1
(g2
g3
Ntp3350
Rp3351
(g91
I01
g18
I00
g35
I00
I00
tp3352
bg35
tp3353
g1
(g11
g12
(I0
F5.699999999999999
I2
F-315.0
tp3354
tp3355
Rp3356
s(g1
(g2
g3
Ntp3357
Rp3358
(g370
I01
g82
I00
NNI00
tp3359
bg180
tp3360
g1
(g11
g12
(I0
F114.1499999999999
I102
F-488.7549019607842
tp3361
tp3362
Rp3363
s(g1
(g2
g3
Ntp3364
Rp3365
(g6
I00
g6
I00
NNI00
tp3366
bg9
tp3367
g1
(g11
g12
(I5
F4796.660000000004
I2903
F-436.06131588012323
tp3368
tp3369
Rp3370
s(g1
(g2
g3
Ntp3371
Rp3372
(g35
I00
g19
I01
g91
I00
I00
tp3373
bg35
tp3374
g1
(g11
g12
(I0
F10.67
I3
F-244.33333333333331
tp3375
tp3376
Rp3377
s(g1
(g2
g3
Ntp3378
Rp3379
(g141
I01
g142
I00
NNI00
tp3380
bg253
tp3381
g1
(g11
g12
(I0
F213.29999999999998
I141
F-451.4893617021282
tp3382
tp3383
Rp3384
s(g1
(g2
g3
Ntp3385
Rp3386
(g35
I00
g91
I00
g35
I00
I00
tp3387
bg19
tp3388
g1
(g11
g12
(I0
F137.05
I47
F-308.40425531914894
tp3389
tp3390
Rp3391
s(g1
(g2
g3
Ntp3392
Rp3393
(g253
I01
g142
I01
NNI00
tp3394
bg253
tp3395
g1
(g11
g12
(I0
F109.41
I67
F-436.70149253731336
tp3396
tp3397
Rp3398
s(g1
(g2
g3
Ntp3399
Rp3400
(g18
I01
g91
I00
g91
I00
I01
tp3401
bg21
tp3402
g1
(g11
g12
(I0
F3.23
I1
F-277.0
tp3403
tp3404
Rp3405
s(g1
(g2
g3
Ntp3406
Rp3407
(g18
I01
g91
I00
g91
I00
I01
tp3408
bg18
tp3409
g1
(g11
g12
(I0
F3.06
I1
F-294.0
tp3410
tp3411
Rp3412
s(g1
(g2
g3
Ntp3413
Rp3414
(g9
I01
g6
I00
NNI00
tp3415
bg9
tp3416
g1
(g11
g12
(I0
F160.12999999999994
I120
F-470.85833333333346
tp3417
tp3418
Rp3419
s(g1
(g2
g3
Ntp3420
Rp3421
(g6
I00
NNg217
I00
I00
tp3422
bg151
tp3423
g1
(g11
g12
(I2
F145.03000000000003
I33
F-162.48484848484853
tp3424
tp3425
Rp3426
s(g1
(g2
g3
Ntp3427
Rp3428
(g35
I01
g35
I01
g18
I01
I00
tp3429
bg18
tp3430
g1
(g11
g12
(I0
F9.03
I3
F-299.0
tp3431
tp3432
Rp3433
s(g1
(g2
g3
Ntp3434
Rp3435
(g18
I01
g91
I01
NNI00
tp3436
bg91
tp3437
g1
(g11
g12
(I0
F27.499999999999993
I15
F-416.6666666666667
tp3438
tp3439
Rp3440
s(g1
(g2
g3
Ntp3441
Rp3442
(g202
I00
g172
I00
g172
I00
I00
tp3443
bg67
tp3444
g1
(g11
g12
(I0
F413.2599999999999
I139
F-303.0359712230216
tp3445
tp3446
Rp3447
s(g1
(g2
g3
Ntp3448
Rp3449
(g91
I00
g18
I00
g35
I01
I00
tp3450
bg35
tp3451
g1
(g11
g12
(I0
F2.92
I1
F-308.0
tp3452
tp3453
Rp3454
s(g1
(g2
g3
Ntp3455
Rp3456
(g514
I00
NNg687
I00
I00
tp3457
bg514
tp3458
g1
(g11
g12
(I0
F94.80999999999999
I33
F-312.69696969696975
tp3459
tp3460
Rp3461
s(g1
(g2
g3
Ntp3462
Rp3463
(g18
I00
g91
I00
g19
I00
I00
tp3464
bg18
tp3465
g1
(g11
g12
(I0
F224.43999999999988
I86
F-339.02325581395354
tp3466
tp3467
Rp3468
s(g1
(g2
g3
Ntp3469
Rp3470
(g9
I01
NNNNI00
tp3471
bg217
tp3472
g1
(g11
g12
(I0
F82.32
I30
F-325.59999999999997
tp3473
tp3474
Rp3475
s(g1
(g2
g3
Ntp3476
Rp3477
(g19
I00
g35
I01
NNI00
tp3478
bg91
tp3479
g1
(g11
g12
(I0
F5.609999999999999
I5
F-489.40000000000003
tp3480
tp3481
Rp3482
s(g1
(g2
g3
Ntp3483
Rp3484
(g19
I01
g91
I01
g91
I01
I01
tp3485
bg19
tp3486
g1
(g11
g12
(I0
F15.149999999999999
I5
F-297.0
tp3487
tp3488
Rp3489
s(g1
(g2
g3
Ntp3490
Rp3491
(g469
I01
NNNNI01
tp3492
bg253
tp3493
g1
(g11
g12
(I0
F28.55
I15
F-409.66666666666663
tp3494
tp3495
Rp3496
s(g1
(g2
g3
Ntp3497
Rp3498
(g91
I00
g18
I00
g35
I00
I00
tp3499
bg21
tp3500
g1
(g11
g12
(I0
F75.78999999999999
I26
F-308.5
tp3501
tp3502
Rp3503
s(g1
(g2
g3
Ntp3504
Rp3505
(g35
I01
g35
I01
NNI00
tp3506
bg91
tp3507
g1
(g11
g12
(I0
F5.67
I7
F-519.0
tp3508
tp3509
Rp3510
s(g1
(g2
g3
Ntp3511
Rp3512
(g91
I00
g19
I00
g18
I00
I00
tp3513
bg18
tp3514
g1
(g11
g12
(I0
F49.25000000000001
I13
F-221.15384615384616
tp3515
tp3516
Rp3517
s(g1
(g2
g3
Ntp3518
Rp3519
(g43
I00
g43
I00
g1067
I00
I00
tp3520
bg1067
tp3521
g1
(g11
g12
(I1
F355.94000000000005
I120
F-303.3833333333334
tp3522
tp3523
Rp3524
s(g1
(g2
g3
Ntp3525
Rp3526
(g35
I00
g19
I00
g91
I00
I00
tp3527
bg35
tp3528
g1
(g11
g12
(I0
F96.56999999999998
I32
F-298.2187500000001
tp3529
tp3530
Rp3531
s(g1
(g2
g3
Ntp3532
Rp3533
(g18
I00
g19
I01
g19
I01
I00
tp3534
bg91
tp3535
g1
(g11
g12
(I0
F2.71
I1
F-329.0
tp3536
tp3537
Rp3538
s(g1
(g2
g3
Ntp3539
Rp3540
(g66
I00
g172
I00
g66
I00
I00
tp3541
bg66
tp3542
g1
(g11
g12
(I0
F63.120000000000005
I21
F-299.42857142857133
tp3543
tp3544
Rp3545
s(g1
(g2
g3
Ntp3546
Rp3547
(g91
I01
g18
I00
g35
I01
I00
tp3548
bg21
tp3549
g1
(g11
g12
(I0
F3.12
I1
F-288.0
tp3550
tp3551
Rp3552
s(g1
(g2
g3
Ntp3553
Rp3554
(g43
I00
g43
I00
g1067
I00
I00
tp3555
bg43
tp3556
g1
(g11
g12
(I2
F758.72
I270
F-319.3703703703702
tp3557
tp3558
Rp3559
s(g1
(g2
g3
Ntp3560
Rp3561
(g18
I00
g19
I00
g18
I00
I00
tp3562
bg19
tp3563
g1
(g11
g12
(I0
F42.58999999999999
I14
F-295.7857142857143
tp3564
tp3565
Rp3566
s(g1
(g2
g3
Ntp3567
Rp3568
(g82
I01
NNg180
I01
I00
tp3569
bg180
tp3570
g1
(g11
g12
(I0
F2.88
I2
F-524.5
tp3571
tp3572
Rp3573
s(g1
(g2
g3
Ntp3574
Rp3575
(g253
I01
g142
I00
NNI00
tp3576
bg253
tp3577
g1
(g11
g12
(I0
F212.41000000000003
I133
F-443.3082706766917
tp3578
tp3579
Rp3580
s(g1
(g2
g3
Ntp3581
Rp3582
(g370
I00
NNg82
I00
I00
tp3583
bg84
tp3584
g1
(g11
g12
(I0
F33.690000000000005
I13
F-351.38461538461536
tp3585
tp3586
Rp3587
s(g1
(g2
g3
Ntp3588
Rp3589
(g18
I00
g35
I00
g18
I00
I00
tp3590
bg19
tp3591
g1
(g11
g12
(I1
F521.0100000000003
I188
F-323.5851063829785
tp3592
tp3593
Rp3594
s(g1
(g2
g3
Ntp3595
Rp3596
(g172
I01
g66
I00
g66
I00
I00
tp3597
bg348
tp3598
g1
(g11
g12
(I0
F107.21
I34
F-284.67647058823536
tp3599
tp3600
Rp3601
s(g1
(g2
g3
Ntp3602
Rp3603
(g35
I00
g91
I00
g19
I00
I00
tp3604
bg18
tp3605
g1
(g11
g12
(I0
F50.510000000000005
I22
F-370.4090909090909
tp3606
tp3607
Rp3608
s(g1
(g2
g3
Ntp3609
Rp3610
(g6
I00
g7
I01
NNI00
tp3611
bg9
tp3612
g1
(g11
g12
(I1
F135.18000000000004
I109
F-475.9816513761468
tp3613
tp3614
Rp3615
s(g1
(g2
g3
Ntp3616
Rp3617
(g91
I00
NNg18
I00
I01
tp3618
bg21
tp3619
g1
(g11
g12
(I0
F4.84
I1
F-116.0
tp3620
tp3621
Rp3622
s(g1
(g2
g3
Ntp3623
Rp3624
(g35
I00
g91
I01
g91
I01
I01
tp3625
bg21
tp3626
g1
(g11
g12
(I0
F3.14
I1
F-286.0
tp3627
tp3628
Rp3629
s(g1
(g2
g3
Ntp3630
Rp3631
(g217
I01
NNNNI00
tp3632
bg217
tp3633
g1
(g11
g12
(I0
F150.96
I54
F-325.5925925925926
tp3634
tp3635
Rp3636
s(g1
(g2
g3
Ntp3637
Rp3638
(g217
I00
g217
I00
NNI00
tp3639
bg217
tp3640
g1
(g11
g12
(I38
F3788.5300000000025
I1529
F-353.8430346631778
tp3641
tp3642
Rp3643
s(g1
(g2
g3
Ntp3644
Rp3645
(g91
I01
g18
I00
g35
I00
I00
tp3646
bg91
tp3647
g1
(g11
g12
(I0
F5.86
I2
F-307.0
tp3648
tp3649
Rp3650
s(g1
(g2
g3
Ntp3651
Rp3652
(g172
I01
g66
I01
NNI00
tp3653
bg348
tp3654
g1
(g11
g12
(I0
F21.9
I17
F-471.17647058823536
tp3655
tp3656
Rp3657
s(g1
(g2
g3
Ntp3658
Rp3659
(g91
I01
g91
I01
g35
I01
I00
tp3660
bg21
tp3661
g1
(g11
g12
(I0
F5.59
I2
F-320.5
tp3662
tp3663
Rp3664
s(g1
(g2
g3
Ntp3665
Rp3666
(g142
I00
NNg141
I00
I00
tp3667
bg544
tp3668
g1
(g11
g12
(I0
F59.07
I15
F-206.2
tp3669
tp3670
Rp3671
s(g1
(g2
g3
Ntp3672
Rp3673
(g91
I00
g18
I00
g19
I01
I00
tp3674
bg35
tp3675
g1
(g11
g12
(I0
F4.96
I1
F-104.0
tp3676
tp3677
Rp3678
s(g1
(g2
g3
Ntp3679
Rp3680
(g18
I00
g35
I00
g19
I00
I00
tp3681
bg21
tp3682
g1
(g11
g12
(I0
F20.589999999999996
I9
F-371.2222222222223
tp3683
tp3684
Rp3685
s(g1
(g2
g3
Ntp3686
Rp3687
(g141
I00
g253
I00
NNI00
tp3688
bg544
tp3689
g1
(g11
g12
(I4
F1026.4600000000003
I525
F-405.35809523809536
tp3690
tp3691
Rp3692
s(g1
(g2
g3
Ntp3693
Rp3694
(g19
I01
g35
I00
g18
I01
I00
tp3695
bg19
tp3696
g1
(g11
g12
(I0
F16.91
I5
F-261.8
tp3697
tp3698
Rp3699
s(g1
(g2
g3
Ntp3700
Rp3701
(g202
I00
g66
I00
g66
I00
I00
tp3702
bg67
tp3703
g1
(g11
g12
(I0
F546.4999999999998
I196
F-321.1734693877549
tp3704
tp3705
Rp3706
s(g1
(g2
g3
Ntp3707
Rp3708
(g172
I01
g172
I01
NNI00
tp3709
bg66
tp3710
g1
(g11
g12
(I0
F331.8299999999999
I197
F-431.8680203045685
tp3711
tp3712
Rp3713
s(g1
(g2
g3
Ntp3714
Rp3715
(g6
I00
g7
I00
NNI00
tp3716
bg217
tp3717
g1
(g11
g12
(I3
F2552.2399999999957
I1924
F-468.3092515592495
tp3718
tp3719
Rp3720
s(g1
(g2
g3
Ntp3721
Rp3722
(g35
I01
g19
I01
NNI00
tp3723
bg91
tp3724
g1
(g11
g12
(I0
F13.34
I12
F-488.8333333333333
tp3725
tp3726
Rp3727
s(g1
(g2
g3
Ntp3728
Rp3729
(g19
I01
NNg35
I00
I00
tp3730
bg21
tp3731
g1
(g11
g12
(I0
F4.05
I1
F-195.0
tp3732
tp3733
Rp3734
s(g1
(g2
g3
Ntp3735
Rp3736
(g6
I00
NNg9
I01
I00
tp3737
bg9
tp3738
g1
(g11
g12
(I0
F5.91
I2
F-304.5
tp3739
tp3740
Rp3741
s(g1
(g2
g3
Ntp3742
Rp3743
(g18
I01
g91
I00
NNI01
tp3744
bg35
tp3745
g1
(g11
g12
(I0
F7.42
I2
F-229.0
tp3746
tp3747
Rp3748
s(g1
(g2
g3
Ntp3749
Rp3750
(g18
I00
g18
I00
g91
I00
I00
tp3751
bg91
tp3752
g1
(g11
g12
(I0
F55.57
I16
F-252.68749999999997
tp3753
tp3754
Rp3755
s(g1
(g2
g3
Ntp3756
Rp3757
(g141
I01
NNg141
I01
I00
tp3758
bg253
tp3759
g1
(g11
g12
(I0
F0.9
I1
F-510.0
tp3760
tp3761
Rp3762
s(g1
(g2
g3
Ntp3763
Rp3764
(g18
I00
g18
I00
g35
I01
I00
tp3765
bg35
tp3766
g1
(g11
g12
(I0
F2.75
I1
F-325.0
tp3767
tp3768
Rp3769
s(g1
(g2
g3
Ntp3770
Rp3771
(g91
I00
g18
I01
g35
I00
I00
tp3772
bg19
tp3773
g1
(g11
g12
(I0
F5.93
I2
F-303.5
tp3774
tp3775
Rp3776
s(g1
(g2
g3
Ntp3777
Rp3778
(g19
I01
g91
I01
g35
I00
I00
tp3779
bg91
tp3780
g1
(g11
g12
(I0
F3.16
I1
F-284.0
tp3781
tp3782
Rp3783
s(g1
(g2
g3
Ntp3784
Rp3785
(g141
I01
g141
I01
NNI00
tp3786
bg141
tp3787
g1
(g11
g12
(I0
F128.28999999999996
I92
F-465.4239130434782
tp3788
tp3789
Rp3790
s(g1
(g2
g3
Ntp3791
Rp3792
(g172
I00
g202
I00
g66
I00
I00
tp3793
bg66
tp3794
g1
(g11
g12
(I0
F225.45000000000007
I68
F-268.4558823529412
tp3795
tp3796
Rp3797
s(g1
(g2
g3
Ntp3798
Rp3799
(g66
I00
g202
I00
g172
I00
I00
tp3800
bg67
tp3801
g1
(g11
g12
(I1
F56.43000000000001
I16
F-254.9375
tp3802
tp3803
Rp3804
s(g1
(g2
g3
Ntp3805
Rp3806
(g19
I01
NNg35
I00
I00
tp3807
bg19
tp3808
g1
(g11
g12
(I0
F2.68
I1
F-332.0
tp3809
tp3810
Rp3811
s(g1
(g2
g3
Ntp3812
Rp3813
(g217
I00
NNg7
I01
I00
tp3814
bg151
tp3815
g1
(g11
g12
(I1
F13.65
I2
F82.5
tp3816
tp3817
Rp3818
s(g1
(g2
g3
Ntp3819
Rp3820
(g202
I00
g66
I00
g172
I00
I00
tp3821
bg172
tp3822
g1
(g11
g12
(I0
F217.56999999999996
I72
F-303.27777777777754
tp3823
tp3824
Rp3825
s(g1
(g2
g3
Ntp3826
Rp3827
(g202
I01
g172
I00
NNI00
tp3828
bg67
tp3829
g1
(g11
g12
(I0
F123.71
I71
F-425.7605633802818
tp3830
tp3831
Rp3832
s(g1
(g2
g3
Ntp3833
Rp3834
(g66
I00
g172
I01
NNI00
tp3835
bg67
tp3836
g1
(g11
g12
(I0
F209.68999999999997
I134
F-443.5149253731343
tp3837
tp3838
Rp3839
s(g1
(g2
g3
Ntp3840
Rp3841
(g18
I01
g35
I00
g18
I01
I00
tp3842
bg19
tp3843
g1
(g11
g12
(I0
F54.25
I18
F-298.6111111111111
tp3844
tp3845
Rp3846
s(g1
(g2
g3
Ntp3847
Rp3848
(g35
I01
g19
I00
g19
I00
I00
tp3849
bg19
tp3850
g1
(g11
g12
(I0
F10.94
I3
F-235.33333333333331
tp3851
tp3852
Rp3853
s(g1
(g2
g3
Ntp3854
Rp3855
(g44
I00
g275
I00
g275
I00
I00
tp3856
bg1067
tp3857
g1
(g11
g12
(I0
F76.71
I21
F-234.71428571428567
tp3858
tp3859
Rp3860
s(g1
(g2
g3
Ntp3861
Rp3862
(g35
I00
g19
I01
g19
I01
I00
tp3863
bg35
tp3864
g1
(g11
g12
(I0
F3.14
I1
F-286.0
tp3865
tp3866
Rp3867
s(g1
(g2
g3
Ntp3868
Rp3869
(g18
I00
g35
I00
g91
I00
I00
tp3870
bg18
tp3871
g1
(g11
g12
(I0
F4.33
I3
F-455.66666666666663
tp3872
tp3873
Rp3874
s(g1
(g2
g3
Ntp3875
Rp3876
(g66
I00
g66
I00
g172
I00
I00
tp3877
bg172
tp3878
g1
(g11
g12
(I0
F436.87999999999994
I149
F-306.79194630872496
tp3879
tp3880
Rp3881
s(g1
(g2
g3
Ntp3882
Rp3883
(g82
I01
g82
I01
NNI00
tp3884
bg84
tp3885
g1
(g11
g12
(I0
F146.41999999999996
I93
F-443.11827956989225
tp3886
tp3887
Rp3888
s(g1
(g2
g3
Ntp3889
Rp3890
(g18
I00
g18
I00
g19
I00
I00
tp3891
bg91
tp3892
g1
(g11
g12
(I0
F130.64999999999998
I45
F-310.3333333333333
tp3893
tp3894
Rp3895
s(g1
(g2
g3
Ntp3896
Rp3897
(g19
I00
g19
I00
g19
I00
I00
tp3898
bg18
tp3899
g1
(g11
g12
(I0
F26.080000000000002
I11
F-362.9090909090909
tp3900
tp3901
Rp3902
s(g1
(g2
g3
Ntp3903
Rp3904
(g19
I00
g91
I01
g91
I01
I01
tp3905
bg91
tp3906
g1
(g11
g12
(I0
F29.130000000000003
I10
F-308.7
tp3907
tp3908
Rp3909
s(g1
(g2
g3
Ntp3910
Rp3911
(g370
I00
NNg180
I01
I00
tp3912
bg180
tp3913
g1
(g11
g12
(I0
F2.92
I1
F-308.0
tp3914
tp3915
Rp3916
s(g1
(g2
g3
Ntp3917
Rp3918
(g91
I00
g19
I00
g19
I00
I00
tp3919
bg19
tp3920
g1
(g11
g12
(I0
F67.54000000000002
I24
F-318.58333333333337
tp3921
tp3922
Rp3923
s(g1
(g2
g3
Ntp3924
Rp3925
(g35
I00
g19
I01
g35
I00
I00
tp3926
bg21
tp3927
g1
(g11
g12
(I0
F3.14
I1
F-286.0
tp3928
tp3929
Rp3930
s(g1
(g2
g3
Ntp3931
Rp3932
(g141
I01
g469
I00
NNI00
tp3933
bg469
tp3934
g1
(g11
g12
(I0
F209.42000000000002
I126
F-433.7936507936508
tp3935
tp3936
Rp3937
s(g1
(g2
g3
Ntp3938
Rp3939
(g35
I00
g91
I01
g18
I00
I00
tp3940
bg35
tp3941
g1
(g11
g12
(I0
F10.05
I2
F-97.5
tp3942
tp3943
Rp3944
s(g1
(g2
g3
Ntp3945
Rp3946
(g18
I00
g91
I00
g19
I00
I01
tp3947
bg21
tp3948
g1
(g11
g12
(I0
F3.06
I1
F-294.0
tp3949
tp3950
Rp3951
s(g1
(g2
g3
Ntp3952
Rp3953
(g505
I01
NNg504
I01
I00
tp3954
bg505
tp3955
g1
(g11
g12
(I0
F7.540000000000001
I2
F-223.0
tp3956
tp3957
Rp3958
s(g1
(g2
g3
Ntp3959
Rp3960
(g82
I00
NNg180
I00
I00
tp3961
bg84
tp3962
g1
(g11
g12
(I0
F169.38000000000002
I62
F-331.4193548387094
tp3963
tp3964
Rp3965
s(g1
(g2
g3
Ntp3966
Rp3967
(g217
I01
g6
I00
NNI00
tp3968
bg151
tp3969
g1
(g11
g12
(I6
F566.8
I263
F-386.0988593155893
tp3970
tp3971
Rp3972
s(g1
(g2
g3
Ntp3973
Rp3974
(g9
I00
NNg9
I00
I00
tp3975
bg9
tp3976
g1
(g11
g12
(I8
F331.81999999999994
I80
F-185.575
tp3977
tp3978
Rp3979
s(g1
(g2
g3
Ntp3980
Rp3981
(g67
I00
g172
I00
g172
I00
I00
tp3982
bg67
tp3983
g1
(g11
g12
(I4
F311.37
I83
F-224.85542168674687
tp3984
tp3985
Rp3986
s(g1
(g2
g3
Ntp3987
Rp3988
(g18
I00
g19
I00
g91
I01
I00
tp3989
bg19
tp3990
g1
(g11
g12
(I0
F3.03
I1
F-297.0
tp3991
tp3992
Rp3993
s(g1
(g2
g3
Ntp3994
Rp3995
(g35
I01
NNg19
I00
I00
tp3996
bg19
tp3997
g1
(g11
g12
(I0
F13.79
I3
F-140.33333333333331
tp3998
tp3999
Rp4000
s(g1
(g2
g3
Ntp4001
Rp4002
(g370
I00
NNg82
I00
I00
tp4003
bg558
tp4004
g1
(g11
g12
(I0
F29.57
I13
F-377.53846153846155
tp4005
tp4006
Rp4007
s(g1
(g2
g3
Ntp4008
Rp4009
(g67
I00
g202
I01
NNI00
tp4010
bg66
tp4011
g1
(g11
g12
(I1
F122.43000000000002
I86
F-470.2209302325581
tp4012
tp4013
Rp4014
s(g1
(g2
g3
Ntp4015
Rp4016
(g35
I00
g19
I00
g91
I00
I00
tp4017
bg18
tp4018
g1
(g11
g12
(I0
F17.78
I9
F-431.3333333333333
tp4019
tp4020
Rp4021
s(g1
(g2
g3
Ntp4022
Rp4023
(g19
I00
NNNNI01
tp4024
bg91
tp4025
g1
(g11
g12
(I1
F74.61999999999999
I21
F-246.95238095238088
tp4026
tp4027
Rp4028
s(g1
(g2
g3
Ntp4029
Rp4030
(g6
I01
NNNNI01
tp4031
bg9
tp4032
g1
(g11
g12
(I0
F43.77
I16
F-330.87499999999994
tp4033
tp4034
Rp4035
s(g1
(g2
g3
Ntp4036
Rp4037
(g91
I00
g35
I00
NNI00
tp4038
bg19
tp4039
g1
(g11
g12
(I0
F10.19
I7
F-454.42857142857144
tp4040
tp4041
Rp4042
s(g1
(g2
g3
Ntp4043
Rp4044
(g180
I00
NNg370
I00
I00
tp4045
bg558
tp4046
g1
(g11
g12
(I0
F136.19999999999996
I53
F-344.2264150943395
tp4047
tp4048
Rp4049
s(g1
(g2
g3
Ntp4050
Rp4051
(g35
I01
g18
I00
NNI00
tp4052
bg21
tp4053
g1
(g11
g12
(I0
F53.65
I28
F-408.3928571428571
tp4054
tp4055
Rp4056
s(g1
(g2
g3
Ntp4057
Rp4058
(g180
I01
g370
I00
NNI00
tp4059
bg180
tp4060
g1
(g11
g12
(I0
F359.83999999999986
I228
F-445.63596491228105
tp4061
tp4062
Rp4063
s(g1
(g2
g3
Ntp4064
Rp4065
(g18
I01
g35
I01
g91
I00
I00
tp4066
bg35
tp4067
g1
(g11
g12
(I0
F2.76
I1
F-324.0
tp4068
tp4069
Rp4070
s(g1
(g2
g3
Ntp4071
Rp4072
(g91
I00
g19
I00
g35
I00
I00
tp4073
bg21
tp4074
g1
(g11
g12
(I0
F2.82
I1
F-318.0
tp4075
tp4076
Rp4077
s(g1
(g2
g3
Ntp4078
Rp4079
(g18
I01
g35
I00
g35
I00
I00
tp4080
bg21
tp4081
g1
(g11
g12
(I0
F2.69
I1
F-331.0
tp4082
tp4083
Rp4084
s(g1
(g2
g3
Ntp4085
Rp4086
(g91
I01
g18
I00
g35
I00
I00
tp4087
bg21
tp4088
g1
(g11
g12
(I0
F5.390000000000001
I2
F-330.5
tp4089
tp4090
Rp4091
s(g1
(g2
g3
Ntp4092
Rp4093
(g18
I00
g35
I00
g18
I00
I00
tp4094
bg21
tp4095
g1
(g11
g12
(I0
F506.6300000000003
I181
F-320.3756906077346
tp4096
tp4097
Rp4098
s(g1
(g2
g3
Ntp4099
Rp4100
(g18
I00
NNg19
I01
I00
tp4101
bg35
tp4102
g1
(g11
g12
(I0
F2.9
I1
F-310.0
tp4103
tp4104
Rp4105
s(g1
(g2
g3
Ntp4106
Rp4107
(g19
I00
g91
I00
g18
I00
I01
tp4108
bg19
tp4109
g1
(g11
g12
(I0
F33.510000000000005
I9
F-227.66666666666669
tp4110
tp4111
Rp4112
s(g1
(g2
g3
Ntp4113
Rp4114
(g19
I00
g19
I00
g91
I00
I00
tp4115
bg21
tp4116
g1
(g11
g12
(I0
F27.25
I9
F-297.22222222222223
tp4117
tp4118
Rp4119
s(g1
(g2
g3
Ntp4120
Rp4121
(g35
I00
g35
I00
g35
I00
I00
tp4122
bg91
tp4123
g1
(g11
g12
(I0
F2.82
I1
F-318.0
tp4124
tp4125
Rp4126
s(g1
(g2
g3
Ntp4127
Rp4128
(g19
I00
g35
I01
g18
I00
I00
tp4129
bg35
tp4130
g1
(g11
g12
(I0
F2.94
I1
F-306.0
tp4131
tp4132
Rp4133
s(g1
(g2
g3
Ntp4134
Rp4135
(g18
I00
g35
I00
g91
I00
I00
tp4136
bg91
tp4137
g1
(g11
g12
(I0
F3.99
I2
F-400.5
tp4138
tp4139
Rp4140
s(g1
(g2
g3
Ntp4141
Rp4142
(g19
I00
g91
I01
g91
I01
I00
tp4143
bg91
tp4144
g1
(g11
g12
(I0
F8.51
I3
F-316.3333333333333
tp4145
tp4146
Rp4147
s(g1
(g2
g3
Ntp4148
Rp4149
(g44
I00
g44
I00
g43
I00
I00
tp4150
bg277
tp4151
g1
(g11
g12
(I0
F57.47
I16
F-240.81250000000006
tp4152
tp4153
Rp4154
s(g1
(g2
g3
Ntp4155
Rp4156
(g66
I00
g66
I00
g202
I00
I00
tp4157
bg348
tp4158
g1
(g11
g12
(I1
F304.4199999999998
I120
F-346.3166666666667
tp4159
tp4160
Rp4161
s(g1
(g2
g3
Ntp4162
Rp4163
(g19
I00
g91
I00
g35
I00
I00
tp4164
bg21
tp4165
g1
(g11
g12
(I1
F79.06000000000002
I33
F-363.45454545454527
tp4166
tp4167
Rp4168
s(g1
(g2
g3
Ntp4169
Rp4170
(g172
I00
g172
I00
g172
I00
I00
tp4171
bg202
tp4172
g1
(g11
g12
(I0
F639.1799999999998
I211
F-297.08530805687235
tp4173
tp4174
Rp4175
s(g1
(g2
g3
Ntp4176
Rp4177
(g19
I00
g91
I01
g19
I00
I00
tp4178
bg35
tp4179
g1
(g11
g12
(I0
F2.67
I1
F-333.0
tp4180
tp4181
Rp4182
s(g1
(g2
g3
Ntp4183
Rp4184
(g18
I00
g91
I01
g91
I01
I00
tp4185
bg19
tp4186
g1
(g11
g12
(I0
F30.0
I9
F-266.66666666666674
tp4187
tp4188
Rp4189
s(g1
(g2
g3
Ntp4190
Rp4191
(g370
I00
NNg558
I01
I00
tp4192
bg84
tp4193
g1
(g11
g12
(I0
F5.54
I2
F-323.0
tp4194
tp4195
Rp4196
s(g1
(g2
g3
Ntp4197
Rp4198
(g91
I01
g91
I01
g91
I01
I01
tp4199
bg35
tp4200
g1
(g11
g12
(I0
F46.59
I15
F-289.4
tp4201
tp4202
Rp4203
s(g1
(g2
g3
Ntp4204
Rp4205
(g505
I01
g505
I01
NNI00
tp4206
bg504
tp4207
g1
(g11
g12
(I0
F134.19
I94
F-459.0425531914896
tp4208
tp4209
Rp4210
s(g1
(g2
g3
Ntp4211
Rp4212
(g66
I00
g66
I00
g67
I00
I00
tp4213
bg348
tp4214
g1
(g11
g12
(I0
F350.6699999999999
I127
F-323.9448818897639
tp4215
tp4216
Rp4217
s(g1
(g2
g3
Ntp4218
Rp4219
(g18
I01
NNg91
I00
I00
tp4220
bg18
tp4221
g1
(g11
g12
(I0
F8.63
I3
F-312.3333333333333
tp4222
tp4223
Rp4224
s(g1
(g2
g3
Ntp4225
Rp4226
(g91
I01
g19
I01
NNI00
tp4227
bg19
tp4228
g1
(g11
g12
(I0
F79.54999999999997
I39
F-396.025641025641
tp4229
tp4230
Rp4231
s(g1
(g2
g3
Ntp4232
Rp4233
(g19
I01
NNg91
I00
I00
tp4234
bg21
tp4235
g1
(g11
g12
(I0
F8.67
I3
F-311.0
tp4236
tp4237
Rp4238
s(g1
(g2
g3
Ntp4239
Rp4240
(g18
I01
g91
I00
g35
I00
I00
tp4241
bg91
tp4242
g1
(g11
g12
(I0
F30.370000000000005
I10
F-296.30000000000007
tp4243
tp4244
Rp4245
s(g1
(g2
g3
Ntp4246
Rp4247
(g141
I00
g141
I00
NNI00
tp4248
bg469
tp4249
g1
(g11
g12
(I1
F684.55
I410
F-434.1536585365854
tp4250
tp4251
Rp4252
s(g1
(g2
g3
Ntp4253
Rp4254
(g35
I00
NNg19
I01
I00
tp4255
bg21
tp4256
g1
(g11
g12
(I0
F3.9
I1
F-210.0
tp4257
tp4258
Rp4259
s(g1
(g2
g3
Ntp4260
Rp4261
(g91
I01
g91
I01
g35
I01
I00
tp4262
bg18
tp4263
g1
(g11
g12
(I0
F5.84
I2
F-308.0
tp4264
tp4265
Rp4266
s(g1
(g2
g3
Ntp4267
Rp4268
(g469
I01
g469
I01
NNI01
tp4269
bg253
tp4270
g1
(g11
g12
(I1
F241.43
I129
F-414.3333333333338
tp4271
tp4272
Rp4273
s(g1
(g2
g3
Ntp4274
Rp4275
(g180
I00
NNg370
I00
I00
tp4276
bg370
tp4277
g1
(g11
g12
(I0
F157.32999999999996
I53
F-303.4905660377358
tp4278
tp4279
Rp4280
s(g1
(g2
g3
Ntp4281
Rp4282
(g9
I00
g6
I00
NNI00
tp4283
bg6
tp4284
g1
(g11
g12
(I3
F1509.7300000000007
I693
F-382.87157287157237
tp4285
tp4286
Rp4287
s(g1
(g2
g3
Ntp4288
Rp4289
(g19
I01
g35
I00
g18
I00
I00
tp4290
bg35
tp4291
g1
(g11
g12
(I0
F22.39
I6
F-226.83333333333334
tp4292
tp4293
Rp4294
s(g1
(g2
g3
Ntp4295
Rp4296
(g82
I01
g370
I01
NNI00
tp4297
bg558
tp4298
g1
(g11
g12
(I0
F138.73
I105
F-469.09523809523836
tp4299
tp4300
Rp4301
s(g1
(g2
g3
Ntp4302
Rp4303
(g18
I00
g19
I01
g91
I00
I00
tp4304
bg35
tp4305
g1
(g11
g12
(I0
F7.539999999999999
I2
F-223.0
tp4306
tp4307
Rp4308
s(g1
(g2
g3
Ntp4309
Rp4310
(g253
I00
g142
I01
NNI00
tp4311
bg544
tp4312
g1
(g11
g12
(I0
F119.48000000000002
I60
F-403.1666666666665
tp4313
tp4314
Rp4315
s(g1
(g2
g3
Ntp4316
Rp4317
(g180
I00
NNg558
I00
I00
tp4318
bg370
tp4319
g1
(g11
g12
(I0
F120.85999999999999
I41
F-305.65853658536594
tp4320
tp4321
Rp4322
s(g1
(g2
g3
Ntp4323
Rp4324
(g91
I00
NNg18
I00
I01
tp4325
bg18
tp4326
g1
(g11
g12
(I0
F2.46
I1
F-354.0
tp4327
tp4328
Rp4329
s(g1
(g2
g3
Ntp4330
Rp4331
(g180
I00
g558
I00
NNI00
tp4332
bg84
tp4333
g1
(g11
g12
(I2
F1250.2699999999998
I707
F-425.0509193776523
tp4334
tp4335
Rp4336
s(g1
(g2
g3
Ntp4337
Rp4338
(g504
I00
g672
I01
NNI01
tp4339
bg1160
tp4340
g1
(g11
g12
(I0
F15.31
I7
F-381.2857142857143
tp4341
tp4342
Rp4343
s(g1
(g2
g3
Ntp4344
Rp4345
(g19
I00
g91
I00
g19
I00
I01
tp4346
bg21
tp4347
g1
(g11
g12
(I0
F13.9
I4
F-252.49999999999997
tp4348
tp4349
Rp4350
s(g1
(g2
g3
Ntp4351
Rp4352
(g19
I00
g91
I00
g35
I00
I00
tp4353
bg19
tp4354
g1
(g11
g12
(I1
F190.03999999999996
I76
F-351.1578947368421
tp4355
tp4356
Rp4357
s(g1
(g2
g3
Ntp4358
Rp4359
(g370
I00
NNg558
I00
I00
tp4360
bg370
tp4361
g1
(g11
g12
(I1
F207.12999999999994
I70
F-304.6999999999998
tp4362
tp4363
Rp4364
s(g1
(g2
g3
Ntp4365
Rp4366
(g18
I01
g91
I00
g35
I01
I00
tp4367
bg18
tp4368
g1
(g11
g12
(I0
F9.07
I3
F-297.66666666666663
tp4369
tp4370
Rp4371
s(g1
(g2
g3
Ntp4372
Rp4373
(g82
I00
g82
I00
NNI00
tp4374
bg180
tp4375
g1
(g11
g12
(I0
F691.0600000000001
I401
F-430.04987531172117
tp4376
tp4377
Rp4378
s(g1
(g2
g3
Ntp4379
Rp4380
(g9
I00
g6
I00
NNI00
tp4381
bg9
tp4382
g1
(g11
g12
(I36
F3790.159999999998
I2026
F-415.379565646594
tp4383
tp4384
Rp4385
s(g1
(g2
g3
Ntp4386
Rp4387
(g504
I00
NNg505
I00
I00
tp4388
bg1160
tp4389
g1
(g11
g12
(I0
F80.58000000000001
I24
F-264.25
tp4390
tp4391
Rp4392
s(g1
(g2
g3
Ntp4393
Rp4394
(g9
I00
NNg9
I00
I00
tp4395
bg6
tp4396
g1
(g11
g12
(I0
F99.13999999999999
I33
F-300.4242424242424
tp4397
tp4398
Rp4399
s(g1
(g2
g3
Ntp4400
Rp4401
(g91
I01
g91
I01
g18
I00
I00
tp4402
bg21
tp4403
g1
(g11
g12
(I0
F2.7
I1
F-330.0
tp4404
tp4405
Rp4406
s(g1
(g2
g3
Ntp4407
Rp4408
(g202
I00
g66
I00
g66
I00
I01
tp4409
bg66
tp4410
g1
(g11
g12
(I0
F245.76000000000013
I92
F-337.141304347826
tp4411
tp4412
Rp4413
s(g1
(g2
g3
Ntp4414
Rp4415
(g19
I01
NNg91
I00
I01
tp4416
bg21
tp4417
g1
(g11
g12
(I0
F5.03
I1
F-97.0
tp4418
tp4419
Rp4420
s(g1
(g2
g3
Ntp4421
Rp4422
(g180
I01
g370
I00
NNI00
tp4423
bg370
tp4424
g1
(g11
g12
(I1
F518.4200000000001
I236
F-384.283898305085
tp4425
tp4426
Rp4427
s(g1
(g2
g3
Ntp4428
Rp4429
(g180
I00
NNg558
I00
I00
tp4430
bg558
tp4431
g1
(g11
g12
(I0
F125.96000000000002
I42
F-301.30952380952374
tp4432
tp4433
Rp4434
s(g1
(g2
g3
Ntp4435
Rp4436
(g18
I01
g18
I01
g19
I00
I00
tp4437
bg18
tp4438
g1
(g11
g12
(I0
F2.93
I1
F-307.0
tp4439
tp4440
Rp4441
s(g1
(g2
g3
Ntp4442
Rp4443
(g18
I01
g18
I01
g35
I01
I00
tp4444
bg21
tp4445
g1
(g11
g12
(I0
F6.48
I1
F48.0
tp4446
tp4447
Rp4448
s(g1
(g2
g3
Ntp4449
Rp4450
(g217
I00
NNg9
I01
I00
tp4451
bg9
tp4452
g1
(g11
g12
(I0
F6.23
I2
F-288.5
tp4453
tp4454
Rp4455
s(g1
(g2
g3
Ntp4456
Rp4457
(g35
I01
g19
I00
g19
I00
I00
tp4458
bg91
tp4459
g1
(g11
g12
(I0
F2.81
I1
F-319.0
tp4460
tp4461
Rp4462
s(g1
(g2
g3
Ntp4463
Rp4464
(g18
I01
g91
I00
g18
I01
I00
tp4465
bg19
tp4466
g1
(g11
g12
(I0
F3.11
I1
F-289.0
tp4467
tp4468
Rp4469
s(g1
(g2
g3
Ntp4470
Rp4471
(g217
I00
NNg6
I01
I00
tp4472
bg217
tp4473
g1
(g11
g12
(I1
F27.130000000000003
I7
F-212.42857142857142
tp4474
tp4475
Rp4476
s(g1
(g2
g3
Ntp4477
Rp4478
(g19
I01
NNg18
I00
I00
tp4479
bg21
tp4480
g1
(g11
g12
(I0
F7.92
I2
F-204.0
tp4481
tp4482
Rp4483
s(g1
(g2
g3
Ntp4484
Rp4485
(g35
I00
g18
I00
g18
I00
I00
tp4486
bg21
tp4487
g1
(g11
g12
(I0
F98.26
I35
F-319.25714285714287
tp4488
tp4489
Rp4490
s(g1
(g2
g3
Ntp4491
Rp4492
(g9
I00
NNNNI00
tp4493
bg151
tp4494
g1
(g11
g12
(I2
F355.9799999999999
I110
F-277.3454545454547
tp4495
tp4496
Rp4497
s(g1
(g2
g3
Ntp4498
Rp4499
(g18
I01
NNg35
I01
I00
tp4500
bg21
tp4501
g1
(g11
g12
(I0
F6.75
I1
F75.0
tp4502
tp4503
Rp4504
s(g1
(g2
g3
Ntp4505
Rp4506
(g18
I00
NNg91
I00
I01
tp4507
bg91
tp4508
g1
(g11
g12
(I0
F5.49
I2
F-325.5
tp4509
tp4510
Rp4511
s(g1
(g2
g3
Ntp4512
Rp4513
(g19
I00
g91
I00
g19
I00
I00
tp4514
bg18
tp4515
g1
(g11
g12
(I0
F183.14999999999998
I68
F-330.66176470588226
tp4516
tp4517
Rp4518
s(g1
(g2
g3
Ntp4519
Rp4520
(g35
I01
NNg19
I00
I00
tp4521
bg21
tp4522
g1
(g11
g12
(I0
F12.61
I3
F-179.66666666666666
tp4523
tp4524
Rp4525
s(g1
(g2
g3
Ntp4526
Rp4527
(g6
I00
NNNNI01
tp4528
bg7
tp4529
g1
(g11
g12
(I1
F174.09000000000003
I57
F-296.47368421052624
tp4530
tp4531
Rp4532
s(g1
(g2
g3
Ntp4533
Rp4534
(g19
I00
NNg18
I00
I01
tp4535
bg19
tp4536
g1
(g11
g12
(I0
F9.93
I3
F-269.0
tp4537
tp4538
Rp4539
s(g1
(g2
g3
Ntp4540
Rp4541
(g370
I00
NNg180
I00
I00
tp4542
bg82
tp4543
g1
(g11
g12
(I0
F95.92999999999999
I27
F-244.70370370370375
tp4544
tp4545
Rp4546
s(g1
(g2
g3
Ntp4547
Rp4548
(g35
I01
g35
I01
g18
I01
I00
tp4549
bg35
tp4550
g1
(g11
g12
(I0
F9.690000000000001
I3
F-277.0
tp4551
tp4552
Rp4553
s(g1
(g2
g3
Ntp4554
Rp4555
(g514
I00
NNg687
I00
I00
tp4556
bg687
tp4557
g1
(g11
g12
(I0
F82.60000000000001
I19
F-165.26315789473682
tp4558
tp4559
Rp4560
s(g1
(g2
g3
Ntp4561
Rp4562
(g19
I01
g91
I01
g91
I01
I00
tp4563
bg19
tp4564
g1
(g11
g12
(I0
F5.8
I2
F-310.0
tp4565
tp4566
Rp4567
s(g1
(g2
g3
Ntp4568
Rp4569
(g558
I00
g370
I01
NNI00
tp4570
bg84
tp4571
g1
(g11
g12
(I0
F99.44999999999999
I65
F-447.92307692307685
tp4572
tp4573
Rp4574
s(g1
(g2
g3
Ntp4575
Rp4576
(g19
I00
g19
I00
g19
I00
I00
tp4577
bg91
tp4578
g1
(g11
g12
(I0
F37.49
I11
F-259.1818181818182
tp4579
tp4580
Rp4581
s(g1
(g2
g3
Ntp4582
Rp4583
(g19
I00
g91
I01
g91
I01
I00
tp4584
bg21
tp4585
g1
(g11
g12
(I0
F11.97
I4
F-300.75
tp4586
tp4587
Rp4588
s(g1
(g2
g3
Ntp4589
Rp4590
(g91
I01
g91
I01
g91
I01
I01
tp4591
bg91
tp4592
g1
(g11
g12
(I0
F44.15
I14
F-284.64285714285717
tp4593
tp4594
Rp4595
s(g1
(g2
g3
Ntp4596
Rp4597
(g18
I01
g91
I00
g35
I00
I00
tp4598
bg21
tp4599
g1
(g11
g12
(I0
F30.900000000000002
I10
F-291.00000000000006
tp4600
tp4601
Rp4602
s(g1
(g2
g3
Ntp4603
Rp4604
(g19
I00
g91
I00
g35
I00
I00
tp4605
bg91
tp4606
g1
(g11
g12
(I0
F69.74000000000001
I29
F-359.8620689655172
tp4607
tp4608
Rp4609
s(g1
(g2
g3
Ntp4610
Rp4611
(g141
I00
g253
I00
NNI00
tp4612
bg253
tp4613
g1
(g11
g12
(I0
F936.8
I481
F-406.37214137214187
tp4614
tp4615
Rp4616
s(g1
(g2
g3
Ntp4617
Rp4618
(g91
I01
g18
I00
g35
I00
I00
tp4619
bg18
tp4620
g1
(g11
g12
(I0
F7.96
I2
F-202.0
tp4621
tp4622
Rp4623
s(g1
(g2
g3
Ntp4624
Rp4625
(g91
I00
NNg35
I01
I00
tp4626
bg91
tp4627
g1
(g11
g12
(I0
F10.1
I3
F-263.3333333333333
tp4628
tp4629
Rp4630
s(g1
(g2
g3
Ntp4631
Rp4632
(g91
I00
g18
I00
g35
I00
I00
tp4633
bg18
tp4634
g1
(g11
g12
(I1
F76.86000000000001
I29
F-334.96551724137925
tp4635
tp4636
Rp4637
s(g1
(g2
g3
Ntp4638
Rp4639
(g19
I00
g19
I00
g35
I00
I00
tp4640
bg21
tp4641
g1
(g11
g12
(I0
F42.43000000000001
I15
F-318.2666666666667
tp4642
tp4643
Rp4644
s(g1
(g2
g3
Ntp4645
Rp4646
(g172
I00
g202
I00
g172
I00
I00
tp4647
bg67
tp4648
g1
(g11
g12
(I0
F58.13
I15
F-212.4666666666667
tp4649
tp4650
Rp4651
s(g1
(g2
g3
Ntp4652
Rp4653
(g91
I01
g19
I00
g19
I00
I00
tp4654
bg21
tp4655
g1
(g11
g12
(I0
F2.96
I1
F-304.0
tp4656
tp4657
Rp4658
s(g1
(g2
g3
Ntp4659
Rp4660
(g1067
I00
g275
I00
g275
I00
I00
tp4661
bg1067
tp4662
g1
(g11
g12
(I2
F121.99
I25
F-112.04000000000003
tp4663
tp4664
Rp4665
s(g1
(g2
g3
Ntp4666
Rp4667
(g202
I00
g66
I00
g66
I00
I00
tp4668
bg66
tp4669
g1
(g11
g12
(I0
F547.4299999999997
I195
F-319.5282051282053
tp4670
tp4671
Rp4672
s(g1
(g2
g3
Ntp4673
Rp4674
(g180
I01
g558
I00
NNI00
tp4675
bg84
tp4676
g1
(g11
g12
(I0
F239.0799999999999
I133
F-420.95488721804537
tp4677
tp4678
Rp4679
s(g1
(g2
g3
Ntp4680
Rp4681
(g18
I00
g18
I00
g91
I00
I00
tp4682
bg35
tp4683
g1
(g11
g12
(I0
F50.06
I16
F-287.12500000000006
tp4684
tp4685
Rp4686
s(g1
(g2
g3
Ntp4687
Rp4688
(g18
I00
g91
I00
g35
I00
I00
tp4689
bg91
tp4690
g1
(g11
g12
(I0
F312.22999999999973
I113
F-324.21238938053114
tp4691
tp4692
Rp4693
s(g1
(g2
g3
Ntp4694
Rp4695
(g91
I01
g19
I01
NNI00
tp4696
bg91
tp4697
g1
(g11
g12
(I0
F53.87999999999999
I40
F-466.6500000000001
tp4698
tp4699
Rp4700
s(g1
(g2
g3
Ntp4701
Rp4702
(g91
I00
g18
I00
g19
I00
I00
tp4703
bg19
tp4704
g1
(g11
g12
(I0
F33.800000000000004
I9
F-224.44444444444446
tp4705
tp4706
Rp4707
s(g1
(g2
g3
Ntp4708
Rp4709
(g18
I01
NNg35
I00
I00
tp4710
bg21
tp4711
g1
(g11
g12
(I0
F11.79
I2
F-10.5
tp4712
tp4713
Rp4714
s(g1
(g2
g3
Ntp4715
Rp4716
(g217
I00
g217
I00
NNI00
tp4717
bg9
tp4718
g1
(g11
g12
(I2
F1309.3900000000006
I656
F-402.5487804878052
tp4719
tp4720
Rp4721
s(g1
(g2
g3
Ntp4722
Rp4723
(g91
I01
g18
I01
NNI00
tp4724
bg91
tp4725
g1
(g11
g12
(I0
F7.090000000000001
I8
F-511.37500000000006
tp4726
tp4727
Rp4728
s(g1
(g2
g3
Ntp4729
Rp4730
(g18
I01
g91
I00
g18
I01
I00
tp4731
bg21
tp4732
g1
(g11
g12
(I0
F5.640000000000001
I2
F-318.0
tp4733
tp4734
Rp4735
s(g1
(g2
g3
Ntp4736
Rp4737
(g91
I00
g91
I00
g19
I00
I01
tp4738
bg21
tp4739
g1
(g11
g12
(I0
F6.27
I2
F-286.5
tp4740
tp4741
Rp4742
s(g1
(g2
g3
Ntp4743
Rp4744
(g19
I00
g35
I00
g91
I00
I00
tp4745
bg35
tp4746
g1
(g11
g12
(I0
F2.99
I2
F-450.5
tp4747
tp4748
Rp4749
s(g1
(g2
g3
Ntp4750
Rp4751
(g91
I01
g35
I00
NNI00
tp4752
bg91
tp4753
g1
(g11
g12
(I0
F0.94
I1
F-506.0
tp4754
tp4755
Rp4756
s(g1
(g2
g3
Ntp4757
Rp4758
(g370
I00
NNg82
I00
I00
tp4759
bg82
tp4760
g1
(g11
g12
(I0
F43.13999999999999
I13
F-274.30769230769226
tp4761
tp4762
Rp4763
s(g1
(g2
g3
Ntp4764
Rp4765
(g18
I00
g19
I00
g91
I01
I00
tp4766
bg21
tp4767
g1
(g11
g12
(I0
F4.98
I1
F-102.0
tp4768
tp4769
Rp4770
s(g1
(g2
g3
Ntp4771
Rp4772
(g514
I01
g687
I00
NNI00
tp4773
bg514
tp4774
g1
(g11
g12
(I0
F196.87000000000003
I141
F-460.3758865248231
tp4775
tp4776
Rp4777
s(g1
(g2
g3
Ntp4778
Rp4779
(g172
I00
g66
I00
g66
I00
I00
tp4780
bg67
tp4781
g1
(g11
g12
(I0
F715.0200000000002
I264
F-329.1969696969694
tp4782
tp4783
Rp4784
s(g1
(g2
g3
Ntp4785
Rp4786
(g18
I01
g91
I01
NNI00
tp4787
bg19
tp4788
g1
(g11
g12
(I0
F15.860000000000001
I15
F-521.5333333333333
tp4789
tp4790
Rp4791
s(g1
(g2
g3
Ntp4792
Rp4793
(g18
I00
g91
I01
g18
I00
I00
tp4794
bg18
tp4795
g1
(g11
g12
(I0
F17.990000000000002
I4
F-150.25
tp4796
tp4797
Rp4798
s(g1
(g2
g3
Ntp4799
Rp4800
(g19
I01
g18
I01
NNI00
tp4801
bg19
tp4802
g1
(g11
g12
(I0
F111.92999999999996
I65
F-427.7999999999999
tp4803
tp4804
Rp4805
s(g1
(g2
g3
Ntp4806
Rp4807
(g91
I01
g18
I01
NNI00
tp4808
bg19
tp4809
g1
(g11
g12
(I0
F18.89
I8
F-363.875
tp4810
tp4811
Rp4812
s(g1
(g2
g3
Ntp4813
Rp4814
(g6
I00
NNNNI00
tp4815
bg217
tp4816
g1
(g11
g12
(I0
F423.40999999999985
I142
F-303.7746478873238
tp4817
tp4818
Rp4819
s(g1
(g2
g3
Ntp4820
Rp4821
(g91
I01
g19
I01
g19
I01
I00
tp4822
bg18
tp4823
g1
(g11
g12
(I0
F2.96
I1
F-304.0
tp4824
tp4825
Rp4826
s(g1
(g2
g3
Ntp4827
Rp4828
(g172
I00
g66
I00
g67
I00
I00
tp4829
bg172
tp4830
g1
(g11
g12
(I1
F668.7300000000005
I262
F-345.08396946564915
tp4831
tp4832
Rp4833
s(g1
(g2
g3
Ntp4834
Rp4835
(g91
I00
g18
I00
g18
I00
I00
tp4836
bg19
tp4837
g1
(g11
g12
(I0
F68.86
I24
F-313.0833333333332
tp4838
tp4839
Rp4840
s(g1
(g2
g3
Ntp4841
Rp4842
(g217
I00
g6
I00
NNI00
tp4843
bg217
tp4844
g1
(g11
g12
(I40
F10716.000000000011
I6801
F-443.79017791501104
tp4845
tp4846
Rp4847
s(g1
(g2
g3
Ntp4848
Rp4849
(g35
I00
g18
I01
g18
I01
I00
tp4850
bg18
tp4851
g1
(g11
g12
(I0
F3.03
I1
F-297.0
tp4852
tp4853
Rp4854
s(g1
(g2
g3
Ntp4855
Rp4856
(g19
I00
g18
I00
g35
I00
I00
tp4857
bg19
tp4858
g1
(g11
g12
(I0
F63.64000000000001
I19
F-265.05263157894734
tp4859
tp4860
Rp4861
s(g1
(g2
g3
Ntp4862
Rp4863
(g91
I00
g35
I00
g91
I00
I00
tp4864
bg91
tp4865
g1
(g11
g12
(I0
F0.51
I1
F-549.0
tp4866
tp4867
Rp4868
s(g1
(g2
g3
Ntp4869
Rp4870
(g18
I00
g91
I00
g35
I01
I00
tp4871
bg35
tp4872
g1
(g11
g12
(I0
F12.22
I4
F-294.5
tp4873
tp4874
Rp4875
s(g1
(g2
g3
Ntp4876
Rp4877
(g9
I00
NNg9
I00
I00
tp4878
bg151
tp4879
g1
(g11
g12
(I1
F138.42000000000002
I38
F-236.3947368421053
tp4880
tp4881
Rp4882
s(g1
(g2
g3
Ntp4883
Rp4884
(g35
I00
g91
I01
g35
I00
I00
tp4885
bg18
tp4886
g1
(g11
g12
(I0
F3.04
I1
F-296.0
tp4887
tp4888
Rp4889
s(g1
(g2
g3
Ntp4890
Rp4891
(g18
I00
g91
I00
g91
I00
I01
tp4892
bg35
tp4893
g1
(g11
g12
(I0
F4.2
I3
F-500.66666666666663
tp4894
tp4895
Rp4896
s(g1
(g2
g3
Ntp4897
Rp4898
(g6
I01
NNg6
I01
I00
tp4899
bg9
tp4900
g1
(g11
g12
(I1
F20.939999999999998
I5
F-186.8
tp4901
tp4902
Rp4903
s(g1
(g2
g3
Ntp4904
Rp4905
(g6
I01
NNNNI00
tp4906
bg217
tp4907
g1
(g11
g12
(I0
F98.95000000000002
I38
F-340.34210526315803
tp4908
tp4909
Rp4910
s(g1
(g2
g3
Ntp4911
Rp4912
(g202
I00
g66
I00
g67
I00
I00
tp4913
bg67
tp4914
g1
(g11
g12
(I0
F85.78
I30
F-314.4666666666667
tp4915
tp4916
Rp4917
s(g1
(g2
g3
Ntp4918
Rp4919
(g19
I00
g35
I00
g91
I00
I00
tp4920
bg18
tp4921
g1
(g11
g12
(I0
F0.51
I1
F-549.0
tp4922
tp4923
Rp4924
s(g1
(g2
g3
Ntp4925
Rp4926
(g141
I00
NNg141
I00
I00
tp4927
bg141
tp4928
g1
(g11
g12
(I1
F216.63000000000005
I44
F-107.65909090909092
tp4929
tp4930
Rp4931
s(g1
(g2
g3
Ntp4932
Rp4933
(g172
I00
g66
I00
g172
I00
I00
tp4934
bg172
tp4935
g1
(g11
g12
(I0
F464.5199999999999
I159
F-308.15094339622624
tp4936
tp4937
Rp4938
s(g1
(g2
g3
Ntp4939
Rp4940
(g66
I00
g66
I00
g66
I00
I00
tp4941
bg67
tp4942
g1
(g11
g12
(I1
F1051.9399999999996
I397
F-335.53148614609563
tp4943
tp4944
Rp4945
s(g1
(g2
g3
Ntp4946
Rp4947
(g35
I01
NNg91
I00
I00
tp4948
bg91
tp4949
g1
(g11
g12
(I0
F4.32
I1
F-168.0
tp4950
tp4951
Rp4952
s(g1
(g2
g3
Ntp4953
Rp4954
(g35
I00
g91
I01
g91
I01
I00
tp4955
bg19
tp4956
g1
(g11
g12
(I0
F3.14
I1
F-286.0
tp4957
tp4958
Rp4959
s(g1
(g2
g3
Ntp4960
Rp4961
(g505
I00
g672
I00
NNI01
tp4962
bg504
tp4963
g1
(g11
g12
(I0
F295.57000000000005
I124
F-364.8064516129034
tp4964
tp4965
Rp4966
s(g1
(g2
g3
Ntp4967
Rp4968
(g504
I00
g672
I00
NNI01
tp4969
bg505
tp4970
g1
(g11
g12
(I0
F77.99
I29
F-331.0689655172414
tp4971
tp4972
Rp4973
s(g1
(g2
g3
Ntp4974
Rp4975
(g19
I00
g91
I00
g18
I00
I01
tp4976
bg91
tp4977
g1
(g11
g12
(I0
F24.79
I7
F-245.85714285714283
tp4978
tp4979
Rp4980
s(g1
(g2
g3
Ntp4981
Rp4982
(g82
I00
NNg180
I01
I00
tp4983
bg180
tp4984
g1
(g11
g12
(I0
F8.67
I4
F-383.25
tp4985
tp4986
Rp4987
s(g1
(g2
g3
Ntp4988
Rp4989
(g19
I00
NNNNI01
tp4990
bg21
tp4991
g1
(g11
g12
(I0
F45.7
I19
F-359.6315789473683
tp4992
tp4993
Rp4994
s(g1
(g2
g3
Ntp4995
Rp4996
(g9
I01
g6
I00
NNI00
tp4997
bg217
tp4998
g1
(g11
g12
(I0
F173.14
I120
F-461.6583333333336
tp4999
tp5000
Rp5001
s(g1
(g2
g3
Ntp5002
Rp5003
(g43
I00
g44
I00
NNI00
tp5004
bg44
tp5005
g1
(g11
g12
(I1
F1153.3400000000001
I529
F-385.0623818525519
tp5006
tp5007
Rp5008
s(g1
(g2
g3
Ntp5009
Rp5010
(g44
I00
g275
I00
g275
I00
I00
tp5011
bg275
tp5012
g1
(g11
g12
(I0
F76.59000000000002
I22
F-251.86363636363635
tp5013
tp5014
Rp5015
s(g1
(g2
g3
Ntp5016
Rp5017
(g18
I01
g19
I01
NNI00
tp5018
bg91
tp5019
g1
(g11
g12
(I0
F27.7
I15
F-415.3333333333334
tp5020
tp5021
Rp5022
s(g1
(g2
g3
Ntp5023
Rp5024
(g19
I00
g35
I01
g35
I01
I00
tp5025
bg35
tp5026
g1
(g11
g12
(I0
F4.56
I1
F-144.0
tp5027
tp5028
Rp5029
s(g1
(g2
g3
Ntp5030
Rp5031
(g18
I00
NNg91
I00
I01
tp5032
bg35
tp5033
g1
(g11
g12
(I0
F2.65
I1
F-335.0
tp5034
tp5035
Rp5036
s(g1
(g2
g3
Ntp5037
Rp5038
(g18
I01
g18
I01
g19
I00
I00
tp5039
bg21
tp5040
g1
(g11
g12
(I0
F3.14
I1
F-286.0
tp5041
tp5042
Rp5043
s(g1
(g2
g3
Ntp5044
Rp5045
(g35
I01
g35
I01
NNI00
tp5046
bg21
tp5047
g1
(g11
g12
(I0
F19.46
I8
F-356.75
tp5048
tp5049
Rp5050
s(g1
(g2
g3
Ntp5051
Rp5052
(g18
I01
g35
I00
g91
I00
I00
tp5053
bg35
tp5054
g1
(g11
g12
(I0
F2.98
I1
F-302.0
tp5055
tp5056
Rp5057
s(g1
(g2
g3
Ntp5058
Rp5059
(g35
I01
NNg18
I00
I00
tp5060
bg18
tp5061
g1
(g11
g12
(I0
F2.75
I1
F-325.0
tp5062
tp5063
Rp5064
s(g1
(g2
g3
Ntp5065
Rp5066
(g35
I00
g91
I01
g91
I01
I00
tp5067
bg91
tp5068
g1
(g11
g12
(I0
F6.09
I2
F-295.5
tp5069
tp5070
Rp5071
s(g1
(g2
g3
Ntp5072
Rp5073
(g558
I00
g370
I01
NNI00
tp5074
bg370
tp5075
g1
(g11
g12
(I0
F114.46000000000002
I65
F-430.3538461538462
tp5076
tp5077
Rp5078
s(g1
(g2
g3
Ntp5079
Rp5080
(g35
I00
g18
I01
g35
I00
I00
tp5081
bg18
tp5082
g1
(g11
g12
(I0
F3.0
I1
F-300.0
tp5083
tp5084
Rp5085
s(g1
(g2
g3
Ntp5086
Rp5087
(g19
I00
g35
I01
g18
I01
I00
tp5088
bg18
tp5089
g1
(g11
g12
(I0
F6.08
I2
F-296.0
tp5090
tp5091
Rp5092
s(g1
(g2
g3
Ntp5093
Rp5094
(g35
I01
g18
I00
g18
I00
I00
tp5095
bg35
tp5096
g1
(g11
g12
(I0
F6.24
I2
F-288.0
tp5097
tp5098
Rp5099
s(g1
(g2
g3
Ntp5100
Rp5101
(g19
I00
NNg19
I00
I00
tp5102
bg91
tp5103
g1
(g11
g12
(I0
F68.52
I19
F-239.36842105263153
tp5104
tp5105
Rp5106
s(g1
(g2
g3
Ntp5107
Rp5108
(g253
I00
g469
I01
NNI01
tp5109
bg253
tp5110
g1
(g11
g12
(I0
F24.150000000000002
I15
F-439.0
tp5111
tp5112
Rp5113
s(g1
(g2
g3
Ntp5114
Rp5115
(g18
I00
g91
I00
g19
I00
I00
tp5116
bg91
tp5117
g1
(g11
g12
(I0
F134.73
I45
F-300.59999999999997
tp5118
tp5119
Rp5120
s(g1
(g2
g3
Ntp5121
Rp5122
(g44
I00
g44
I00
g44
I00
I00
tp5123
bg44
tp5124
g1
(g11
g12
(I1
F1509.780000000001
I506
F-302.30434782608677
tp5125
tp5126
Rp5127
s(g1
(g2
g3
Ntp5128
Rp5129
(g18
I00
g19
I01
g91
I01
I00
tp5130
bg21
tp5131
g1
(g11
g12
(I0
F2.85
I1
F-315.0
tp5132
tp5133
Rp5134
s(g1
(g2
g3
Ntp5135
Rp5136
(g35
I01
g91
I00
g35
I01
I00
tp5137
bg35
tp5138
g1
(g11
g12
(I0
F3.05
I1
F-295.0
tp5139
tp5140
Rp5141
s(g1
(g2
g3
Ntp5142
Rp5143
(g67
I00
g172
I00
g67
I00
I00
tp5144
bg67
tp5145
g1
(g11
g12
(I0
F265.9499999999999
I84
F-283.39285714285717
tp5146
tp5147
Rp5148
s(g1
(g2
g3
Ntp5149
Rp5150
(g91
I01
g35
I00
NNI00
tp5151
bg18
tp5152
g1
(g11
g12
(I0
F1.08
I1
F-492.0
tp5153
tp5154
Rp5155
s(g1
(g2
g3
Ntp5156
Rp5157
(g217
I00
g7
I00
NNI00
tp5158
bg151
tp5159
g1
(g11
g12
(I4
F983.0100000000002
I491
F-401.49287169042765
tp5160
tp5161
Rp5162
s(g1
(g2
g3
Ntp5163
Rp5164
(g19
I00
g18
I00
g35
I00
I00
tp5165
bg91
tp5166
g1
(g11
g12
(I0
F3.8
I2
F-410.0
tp5167
tp5168
Rp5169
s(g1
(g2
g3
Ntp5170
Rp5171
(g35
I01
g18
I00
NNI00
tp5172
bg91
tp5173
g1
(g11
g12
(I0
F49.55
I27
F-416.4814814814815
tp5174
tp5175
Rp5176
s(g1
(g2
g3
Ntp5177
Rp5178
(g19
I01
g35
I00
g18
I01
I00
tp5179
bg18
tp5180
g1
(g11
g12
(I0
F14.809999999999999
I5
F-303.8
tp5181
tp5182
Rp5183
s(g1
(g2
g3
Ntp5184
Rp5185
(g18
I00
g91
I00
g35
I00
I00
tp5186
bg21
tp5187
g1
(g11
g12
(I0
F289.43
I113
F-343.86725663716805
tp5188
tp5189
Rp5190
s(g1
(g2
g3
Ntp5191
Rp5192
(g19
I00
g91
I00
g18
I00
I00
tp5193
bg19
tp5194
g1
(g11
g12
(I1
F434.66
I141
F-292.0212765957447
tp5195
tp5196
Rp5197
s(g1
(g2
g3
Ntp5198
Rp5199
(g217
I00
NNg217
I00
I00
tp5200
bg9
tp5201
g1
(g11
g12
(I1
F398.3399999999999
I123
F-276.7317073170736
tp5202
tp5203
Rp5204
s(g1
(g2
g3
Ntp5205
Rp5206
(g67
I00
g172
I00
g66
I00
I00
tp5207
bg67
tp5208
g1
(g11
g12
(I0
F51.34
I17
F-298.0
tp5209
tp5210
Rp5211
s(g1
(g2
g3
Ntp5212
Rp5213
(g19
I01
g91
I00
NNI01
tp5214
bg19
tp5215
g1
(g11
g12
(I0
F53.519999999999996
I17
F-285.1764705882353
tp5216
tp5217
Rp5218
s(g1
(g2
g3
Ntp5219
Rp5220
(g202
I00
g172
I00
g202
I00
I00
tp5221
bg202
tp5222
g1
(g11
g12
(I0
F146.42999999999998
I43
F-259.4651162790698
tp5223
tp5224
Rp5225
s(g1
(g2
g3
Ntp5226
Rp5227
(g505
I01
g664
I01
NNI00
tp5228
bg664
tp5229
g1
(g11
g12
(I0
F13.899999999999999
I11
F-473.63636363636357
tp5230
tp5231
Rp5232
s(g1
(g2
g3
Ntp5233
Rp5234
(g18
I01
g35
I00
g35
I00
I00
tp5235
bg35
tp5236
g1
(g11
g12
(I0
F2.92
I1
F-308.0
tp5237
tp5238
Rp5239
s(g1
(g2
g3
Ntp5240
Rp5241
(g370
I01
NNg370
I01
I00
tp5242
bg370
tp5243
g1
(g11
g12
(I0
F8.08
I3
F-330.6666666666667
tp5244
tp5245
Rp5246
s(g1
(g2
g3
Ntp5247
Rp5248
(g19
I01
g35
I00
NNI00
tp5249
bg91
tp5250
g1
(g11
g12
(I0
F21.240000000000002
I12
F-423.00000000000006
tp5251
tp5252
Rp5253
s(g1
(g2
g3
Ntp5254
Rp5255
(g687
I00
NNg514
I00
I00
tp5256
bg513
tp5257
g1
(g11
g12
(I0
F35.06
I13
F-330.30769230769226
tp5258
tp5259
Rp5260
s(g1
(g2
g3
Ntp5261
Rp5262
(g6
I01
NNNNI01
tp5263
bg7
tp5264
g1
(g11
g12
(I0
F30.32
I14
F-388.5
tp5265
tp5266
Rp5267
s(g1
(g2
g3
Ntp5268
Rp5269
(g91
I01
NNg18
I00
I00
tp5270
bg35
tp5271
g1
(g11
g12
(I0
F4.81
I1
F-119.0
tp5272
tp5273
Rp5274
s(g1
(g2
g3
Ntp5275
Rp5276
(g91
I01
g91
I01
g35
I00
I00
tp5277
bg21
tp5278
g1
(g11
g12
(I0
F9.190000000000001
I3
F-293.66666666666663
tp5279
tp5280
Rp5281
s(g1
(g2
g3
Ntp5282
Rp5283
(g91
I00
g18
I00
g19
I00
I00
tp5284
bg91
tp5285
g1
(g11
g12
(I0
F71.17
I24
F-303.45833333333337
tp5286
tp5287
Rp5288
s(g1
(g2
g3
Ntp5289
Rp5290
(g18
I00
g91
I00
g18
I00
I01
tp5291
bg35
tp5292
g1
(g11
g12
(I0
F3.17
I1
F-283.0
tp5293
tp5294
Rp5295
s(g1
(g2
g3
Ntp5296
Rp5297
(g35
I01
g19
I00
g91
I00
I00
tp5298
bg35
tp5299
g1
(g11
g12
(I0
F2.92
I1
F-308.0
tp5300
tp5301
Rp5302
s(g1
(g2
g3
Ntp5303
Rp5304
(g172
I00
g202
I00
g172
I00
I00
tp5305
bg172
tp5306
g1
(g11
g12
(I1
F101.40000000000003
I28
F-237.85714285714283
tp5307
tp5308
Rp5309
s(g1
(g2
g3
Ntp5310
Rp5311
(g18
I00
g91
I00
g35
I00
I00
tp5312
bg19
tp5313
g1
(g11
g12
(I0
F317.6799999999999
I113
F-318.86725663716834
tp5314
tp5315
Rp5316
s(g1
(g2
g3
Ntp5317
Rp5318
(g19
I01
g18
I00
NNI00
tp5319
bg91
tp5320
g1
(g11
g12
(I0
F0.4
I1
F-560.0
tp5321
tp5322
Rp5323
s(g1
(g2
g3
Ntp5324
Rp5325
(g35
I01
g19
I00
g19
I00
I00
tp5326
bg35
tp5327
g1
(g11
g12
(I0
F11.82
I4
F-304.5
tp5328
tp5329
Rp5330
s(g1
(g2
g3
Ntp5331
Rp5332
(g7
I00
g6
I00
NNI00
tp5333
bg6
tp5334
g1
(g11
g12
(I1
F3065.1399999999967
I1822
F-433.0296377607012
tp5335
tp5336
Rp5337
s(g1
(g2
g3
Ntp5338
Rp5339
(g44
I00
g1067
I00
g1067
I00
I00
tp5340
bg44
tp5341
g1
(g11
g12
(I4
F293.97999999999985
I81
F-237.06172839506172
tp5342
tp5343
Rp5344
s(g1
(g2
g3
Ntp5345
Rp5346
(g1067
I00
g275
I00
g275
I00
I00
tp5347
bg43
tp5348
g1
(g11
g12
(I1
F38.6
I2
F1330.0
tp5349
tp5350
Rp5351
s(g1
(g2
g3
Ntp5352
Rp5353
(g19
I00
g35
I01
g18
I00
I00
tp5354
bg19
tp5355
g1
(g11
g12
(I0
F5.13
I1
F-87.0
tp5356
tp5357
Rp5358
s(g1
(g2
g3
Ntp5359
Rp5360
(g9
I01
g7
I00
NNI00
tp5361
bg7
tp5362
g1
(g11
g12
(I4
F297.13999999999993
I145
F-398.91034482758636
tp5363
tp5364
Rp5365
s(g1
(g2
g3
Ntp5366
Rp5367
(g19
I01
g91
I00
g91
I00
I00
tp5368
bg19
tp5369
g1
(g11
g12
(I0
F51.76
I16
F-276.5
tp5370
tp5371
Rp5372
s(g1
(g2
g3
Ntp5373
Rp5374
(g9
I01
NNg9
I01
I00
tp5375
bg7
tp5376
g1
(g11
g12
(I0
F6.96
I5
F-460.80000000000007
tp5377
tp5378
Rp5379
s(g1
(g2
g3
Ntp5380
Rp5381
(g514
I00
g927
I01
NNI00
tp5382
bg514
tp5383
g1
(g11
g12
(I0
F318.44000000000005
I205
F-444.72682926829265
tp5384
tp5385
Rp5386
s(g1
(g2
g3
Ntp5387
Rp5388
(g19
I01
NNg91
I01
I00
tp5389
bg91
tp5390
g1
(g11
g12
(I0
F11.52
I2
F-24.0
tp5391
tp5392
Rp5393
s(g1
(g2
g3
Ntp5394
Rp5395
(g35
I01
NNg91
I00
I00
tp5396
bg21
tp5397
g1
(g11
g12
(I0
F4.36
I1
F-164.0
tp5398
tp5399
Rp5400
s(g1
(g2
g3
Ntp5401
Rp5402
(g35
I01
g35
I01
NNI00
tp5403
bg35
tp5404
g1
(g11
g12
(I0
F13.499999999999998
I8
F-431.24999999999994
tp5405
tp5406
Rp5407
s(g1
(g2
g3
Ntp5408
Rp5409
(g1067
I00
g1067
I00
g1067
I00
I00
tp5410
bg1067
tp5411
g1
(g11
g12
(I1
F113.66
I20
F-31.70000000000005
tp5412
tp5413
Rp5414
s(g1
(g2
g3
Ntp5415
Rp5416
(g91
I01
g91
I01
g91
I01
I01
tp5417
bg19
tp5418
g1
(g11
g12
(I0
F42.620000000000005
I13
F-272.15384615384613
tp5419
tp5420
Rp5421
s(g1
(g2
g3
Ntp5422
Rp5423
(g558
I00
NNg180
I00
I00
tp5424
bg180
tp5425
g1
(g11
g12
(I0
F65.74
I21
F-286.9523809523809
tp5426
tp5427
Rp5428
s(g1
(g2
g3
Ntp5429
Rp5430
(g35
I01
g18
I00
g19
I00
I00
tp5431
bg91
tp5432
g1
(g11
g12
(I0
F4.41
I1
F-159.0
tp5433
tp5434
Rp5435
s(g1
(g2
g3
Ntp5436
Rp5437
(g9
I00
NNNNI00
tp5438
bg9
tp5439
g1
(g11
g12
(I13
F925.3600000000004
I264
F-251.31060606060643
tp5440
tp5441
Rp5442
s(g1
(g2
g3
Ntp5443
Rp5444
(g172
I00
g66
I00
g202
I00
I00
tp5445
bg67
tp5446
g1
(g11
g12
(I0
F106.79
I45
F-362.68888888888887
tp5447
tp5448
Rp5449
s(g1
(g2
g3
Ntp5450
Rp5451
(g35
I01
g91
I01
NNI01
tp5452
bg21
tp5453
g1
(g11
g12
(I0
F4.12
I2
F-394.0
tp5454
tp5455
Rp5456
s(g1
(g2
g3
Ntp5457
Rp5458
(g1067
I01
g1067
I01
g1067
I01
I00
tp5459
bg275
tp5460
g1
(g11
g12
(I0
F17.94
I1
F1194.0
tp5461
tp5462
Rp5463
s(g1
(g2
g3
Ntp5464
Rp5465
(g664
I00
g672
I00
NNI01
tp5466
bg672
tp5467
g1
(g11
g12
(I0
F29.01
I25
F-483.96000000000004
tp5468
tp5469
Rp5470
s(g1
(g2
g3
Ntp5471
Rp5472
(g19
I00
g35
I00
g35
I00
I00
tp5473
bg18
tp5474
g1
(g11
g12
(I0
F36.26
I12
F-297.8333333333333
tp5475
tp5476
Rp5477
s(g1
(g2
g3
Ntp5478
Rp5479
(g18
I00
NNg91
I00
I01
tp5480
bg19
tp5481
g1
(g11
g12
(I0
F1.1300000000000001
I2
F-543.5
tp5482
tp5483
Rp5484
s(g1
(g2
g3
Ntp5485
Rp5486
(g43
I00
g43
I00
g44
I00
I00
tp5487
bg277
tp5488
g1
(g11
g12
(I3
F502.6799999999996
I168
F-300.89285714285694
tp5489
tp5490
Rp5491
s(g1
(g2
g3
Ntp5492
Rp5493
(g66
I00
g66
I00
g66
I00
I00
tp5494
bg202
tp5495
g1
(g11
g12
(I1
F1069.1199999999994
I396
F-330.2171717171714
tp5496
tp5497
Rp5498
s(g1
(g2
g3
Ntp5499
Rp5500
(g927
I01
g687
I01
NNI00
tp5501
bg514
tp5502
g1
(g11
g12
(I0
F104.51000000000002
I67
F-450.8358208955222
tp5503
tp5504
Rp5505
s(g1
(g2
g3
Ntp5506
Rp5507
(g6
I00
g7
I01
NNI00
tp5508
bg151
tp5509
g1
(g11
g12
(I0
F162.54999999999993
I104
F-443.70192307692304
tp5510
tp5511
Rp5512
s(g1
(g2
g3
Ntp5513
Rp5514
(g202
I00
g66
I00
g66
I00
I00
tp5515
bg172
tp5516
g1
(g11
g12
(I0
F531.8799999999995
I195
F-327.2410256410258
tp5517
tp5518
Rp5519
s(g1
(g2
g3
Ntp5520
Rp5521
(g18
I01
g91
I00
g18
I01
I00
tp5522
bg18
tp5523
g1
(g11
g12
(I0
F5.76
I2
F-312.0
tp5524
tp5525
Rp5526
s(g1
(g2
g3
Ntp5527
Rp5528
(g19
I01
g91
I01
g35
I00
I00
tp5529
bg19
tp5530
g1
(g11
g12
(I0
F2.74
I1
F-326.0
tp5531
tp5532
Rp5533
s(g1
(g2
g3
Ntp5534
Rp5535
(g18
I00
g91
I00
g18
I00
I01
tp5536
bg18
tp5537
g1
(g11
g12
(I0
F3.06
I1
F-294.0
tp5538
tp5539
Rp5540
s(g1
(g2
g3
Ntp5541
Rp5542
(g217
I01
NNNNI00
tp5543
bg151
tp5544
g1
(g11
g12
(I2
F216.06
I62
F-253.62903225806443
tp5545
tp5546
Rp5547
s(g1
(g2
g3
Ntp5548
Rp5549
(g91
I01
g19
I01
g18
I00
I00
tp5550
bg21
tp5551
g1
(g11
g12
(I0
F2.95
I1
F-305.0
tp5552
tp5553
Rp5554
s(g1
(g2
g3
Ntp5555
Rp5556
(g66
I00
g172
I00
NNI00
tp5557
bg202
tp5558
g1
(g11
g12
(I1
F767.4599999999998
I529
F-455.9527410207934
tp5559
tp5560
Rp5561
s(g1
(g2
g3
Ntp5562
Rp5563
(g18
I00
g91
I01
g18
I00
I00
tp5564
bg21
tp5565
g1
(g11
g12
(I0
F3.01
I1
F-299.0
tp5566
tp5567
Rp5568
s(g1
(g2
g3
Ntp5569
Rp5570
(g253
I01
g469
I00
NNI00
tp5571
bg141
tp5572
g1
(g11
g12
(I1
F356.68999999999977
I236
F-452.9067796610168
tp5573
tp5574
Rp5575
s(g1
(g2
g3
Ntp5576
Rp5577
(g172
I00
g202
I00
g202
I00
I00
tp5578
bg67
tp5579
g1
(g11
g12
(I0
F96.95
I34
F-314.85294117647055
tp5580
tp5581
Rp5582
s(g1
(g2
g3
Ntp5583
Rp5584
(g19
I00
g35
I00
g18
I00
I00
tp5585
bg18
tp5586
g1
(g11
g12
(I0
F439.52000000000004
I157
F-320.16560509554154
tp5587
tp5588
Rp5589
s(g1
(g2
g3
Ntp5590
Rp5591
(g202
I00
g66
I00
g66
I00
I01
tp5592
bg202
tp5593
g1
(g11
g12
(I0
F462.62999999999977
I186
F-353.4838709677421
tp5594
tp5595
Rp5596
s(g1
(g2
g3
Ntp5597
Rp5598
(g18
I01
g19
I00
g91
I00
I00
tp5599
bg18
tp5600
g1
(g11
g12
(I0
F4.86
I1
F-114.0
tp5601
tp5602
Rp5603
s(g1
(g2
g3
Ntp5604
Rp5605
(g9
I00
NNg9
I00
I00
tp5606
bg7
tp5607
g1
(g11
g12
(I0
F109.96
I35
F-286.62857142857143
tp5608
tp5609
Rp5610
s(g1
(g2
g3
Ntp5611
Rp5612
(g35
I01
NNg18
I00
I00
tp5613
bg35
tp5614
g1
(g11
g12
(I0
F3.04
I1
F-296.0
tp5615
tp5616
Rp5617
s(g1
(g2
g3
Ntp5618
Rp5619
(g19
I00
g18
I00
g35
I00
I00
tp5620
bg21
tp5621
g1
(g11
g12
(I0
F36.42
I11
F-268.9090909090909
tp5622
tp5623
Rp5624
s(g1
(g2
g3
Ntp5625
Rp5626
(g9
I00
g7
I01
NNI00
tp5627
bg151
tp5628
g1
(g11
g12
(I0
F106.03999999999996
I82
F-470.68292682926824
tp5629
tp5630
Rp5631
s(g1
(g2
g3
Ntp5632
Rp5633
(g180
I00
NNg370
I00
I00
tp5634
bg180
tp5635
g1
(g11
g12
(I8
F411.6799999999998
I126
F-276.9285714285717
tp5636
tp5637
Rp5638
s(g1
(g2
g3
Ntp5639
Rp5640
(g18
I00
g91
I01
g91
I01
I01
tp5641
bg19
tp5642
g1
(g11
g12
(I0
F5.949999999999999
I2
F-302.5
tp5643
tp5644
Rp5645
s(g1
(g2
g3
Ntp5646
Rp5647
(g217
I00
g7
I00
NNI00
tp5648
bg217
tp5649
g1
(g11
g12
(I28
F2565.849999999998
I1261
F-397.87232355273585
tp5650
tp5651
Rp5652
s(g1
(g2
g3
Ntp5653
Rp5654
(g18
I00
NNg35
I01
I00
tp5655
bg91
tp5656
g1
(g11
g12
(I0
F2.62
I1
F-338.0
tp5657
tp5658
Rp5659
s(g1
(g2
g3
Ntp5660
Rp5661
(g18
I01
NNg35
I01
I00
tp5662
bg18
tp5663
g1
(g11
g12
(I0
F3.05
I1
F-295.0
tp5664
tp5665
Rp5666
s(g1
(g2
g3
Ntp5667
Rp5668
(g19
I00
g18
I00
g19
I00
I00
tp5669
bg18
tp5670
g1
(g11
g12
(I0
F79.21
I25
F-283.15999999999985
tp5671
tp5672
Rp5673
s(g1
(g2
g3
Ntp5674
Rp5675
(g35
I01
g19
I00
g35
I01
I00
tp5676
bg19
tp5677
g1
(g11
g12
(I0
F4.49
I1
F-151.0
tp5678
tp5679
Rp5680
s(g1
(g2
g3
Ntp5681
Rp5682
(g558
I01
NNg370
I01
I00
tp5683
bg558
tp5684
g1
(g11
g12
(I0
F0.81
I1
F-519.0
tp5685
tp5686
Rp5687
s(g1
(g2
g3
Ntp5688
Rp5689
(g253
I00
NNg141
I00
I00
tp5690
bg253
tp5691
g1
(g11
g12
(I0
F154.31
I50
F-297.0799999999999
tp5692
tp5693
Rp5694
s(g1
(g2
g3
Ntp5695
Rp5696
(g43
I00
g44
I00
NNI00
tp5697
bg277
tp5698
g1
(g11
g12
(I2
F892.7499999999993
I540
F-434.92037037037
tp5699
tp5700
Rp5701
s(g1
(g2
g3
Ntp5702
Rp5703
(g35
I00
g18
I00
g18
I00
I00
tp5704
bg18
tp5705
g1
(g11
g12
(I0
F102.73
I35
F-306.4857142857144
tp5706
tp5707
Rp5708
s(g1
(g2
g3
Ntp5709
Rp5710
(g82
I00
g558
I00
NNI00
tp5711
bg558
tp5712
g1
(g11
g12
(I2
F1595.5300000000009
I681
F-367.92364170337703
tp5713
tp5714
Rp5715
s(g1
(g2
g3
Ntp5716
Rp5717
(g9
I00
g6
I00
NNI00
tp5718
bg7
tp5719
g1
(g11
g12
(I0
F1231.7899999999995
I656
F-415.4786585365851
tp5720
tp5721
Rp5722
s(g1
(g2
g3
Ntp5723
Rp5724
(g217
I00
g6
I01
NNI00
tp5725
bg217
tp5726
g1
(g11
g12
(I5
F1460.5799999999972
I961
F-449.76690946930313
tp5727
tp5728
Rp5729
s(g1
(g2
g3
Ntp5730
Rp5731
(g504
I00
g672
I01
NNI01
tp5732
bg664
tp5733
g1
(g11
g12
(I0
F11.0
I7
F-442.85714285714283
tp5734
tp5735
Rp5736
s(g1
(g2
g3
Ntp5737
Rp5738
(g82
I00
g82
I00
NNI00
tp5739
bg82
tp5740
g1
(g11
g12
(I13
F2266.81
I1137
F-401.57167985927873
tp5741
tp5742
Rp5743
s(g1
(g2
g3
Ntp5744
Rp5745
(g35
I01
g18
I01
NNI00
tp5746
bg19
tp5747
g1
(g11
g12
(I0
F24.290000000000003
I13
F-413.15384615384613
tp5748
tp5749
Rp5750
s(g1
(g2
g3
Ntp5751
Rp5752
(g91
I01
g35
I00
NNI00
tp5753
bg35
tp5754
g1
(g11
g12
(I0
F0.51
I1
F-549.0
tp5755
tp5756
Rp5757
s(g1
(g2
g3
Ntp5758
Rp5759
(g18
I00
g91
I01
g35
I00
I00
tp5760
bg91
tp5761
g1
(g11
g12
(I0
F3.12
I1
F-288.0
tp5762
tp5763
Rp5764
s(g1
(g2
g3
Ntp5765
Rp5766
(g217
I00
g7
I01
NNI00
tp5767
bg217
tp5768
g1
(g11
g12
(I5
F394.68000000000006
I198
F-400.6666666666667
tp5769
tp5770
Rp5771
s(g1
(g2
g3
Ntp5772
Rp5773
(g18
I00
g91
I00
g35
I01
I00
tp5774
bg19
tp5775
g1
(g11
g12
(I0
F8.85
I3
F-305.0
tp5776
tp5777
Rp5778
s(g1
(g2
g3
Ntp5779
Rp5780
(g19
I01
NNNNI01
tp5781
bg19
tp5782
g1
(g11
g12
(I0
F4.94
I1
F-106.0
tp5783
tp5784
Rp5785
s(g1
(g2
g3
Ntp5786
Rp5787
(g82
I00
NNg370
I00
I00
tp5788
bg82
tp5789
g1
(g11
g12
(I8
F395.1
I104
F-220.50000000000014
tp5790
tp5791
Rp5792
s(g1
(g2
g3
Ntp5793
Rp5794
(g35
I01
g91
I01
NNI01
tp5795
bg91
tp5796
g1
(g11
g12
(I0
F2.0999999999999996
I2
F-495.0
tp5797
tp5798
Rp5799
s(g1
(g2
g3
Ntp5800
Rp5801
(g19
I01
NNg91
I01
I00
tp5802
bg35
tp5803
g1
(g11
g12
(I0
F6.949999999999999
I2
F-252.5
tp5804
tp5805
Rp5806
s(g1
(g2
g3
Ntp5807
Rp5808
(g927
I00
g514
I01
NNI00
tp5809
bg514
tp5810
g1
(g11
g12
(I0
F246.41999999999996
I108
F-375.5092592592595
tp5811
tp5812
Rp5813
s(g1
(g2
g3
Ntp5814
Rp5815
(g18
I00
g91
I01
g91
I01
I00
tp5816
bg91
tp5817
g1
(g11
g12
(I0
F33.9
I10
F-261.0
tp5818
tp5819
Rp5820
s(g1
(g2
g3
Ntp5821
Rp5822
(g66
I00
g66
I00
g172
I00
I00
tp5823
bg67
tp5824
g1
(g11
g12
(I0
F425.79000000000025
I149
F-314.23489932885906
tp5825
tp5826
Rp5827
s(g1
(g2
g3
Ntp5828
Rp5829
(g172
I00
g172
I00
g172
I00
I00
tp5830
bg66
tp5831
g1
(g11
g12
(I0
F363.2399999999998
I129
F-318.4186046511628
tp5832
tp5833
Rp5834
s(g1
(g2
g3
Ntp5835
Rp5836
(g43
I01
g44
I00
NNI00
tp5837
bg277
tp5838
g1
(g11
g12
(I0
F130.58000000000004
I96
F-468.42708333333337
tp5839
tp5840
Rp5841
s(g1
(g2
g3
Ntp5842
Rp5843
(g91
I01
g35
I01
NNI00
tp5844
bg91
tp5845
g1
(g11
g12
(I0
F4.03
I1
F-197.0
tp5846
tp5847
Rp5848
s(g1
(g2
g3
Ntp5849
Rp5850
(g19
I01
g91
I00
NNI01
tp5851
bg91
tp5852
g1
(g11
g12
(I0
F60.26
I18
F-265.22222222222223
tp5853
tp5854
Rp5855
s(g1
(g2
g3
Ntp5856
Rp5857
(g6
I00
g7
I00
NNI00
tp5858
bg7
tp5859
g1
(g11
g12
(I1
F4482.410000000013
I1885
F-363.4923076923071
tp5860
tp5861
Rp5862
s(g1
(g2
g3
Ntp5863
Rp5864
(g67
I00
g172
I00
g202
I00
I00
tp5865
bg67
tp5866
g1
(g11
g12
(I0
F86.03999999999998
I31
F-324.19354838709677
tp5867
tp5868
Rp5869
s(g1
(g2
g3
Ntp5870
Rp5871
(g91
I00
g19
I00
g35
I00
I00
tp5872
bg35
tp5873
g1
(g11
g12
(I0
F6.21
I2
F-289.5
tp5874
tp5875
Rp5876
s(g1
(g2
g3
Ntp5877
Rp5878
(g6
I00
g7
I00
NNI00
tp5879
bg6
tp5880
g1
(g11
g12
(I38
F10167.840000000013
I6503
F-445.25265262186423
tp5881
tp5882
Rp5883
s(g1
(g2
g3
Ntp5884
Rp5885
(g180
I00
NNNNI01
tp5886
bg558
tp5887
g1
(g11
g12
(I0
F8.959999999999999
I5
F-420.8
tp5888
tp5889
Rp5890
s(g1
(g2
g3
Ntp5891
Rp5892
(g91
I01
NNg91
I01
I01
tp5893
bg35
tp5894
g1
(g11
g12
(I0
F2.63
I1
F-337.0
tp5895
tp5896
Rp5897
s(g1
(g2
g3
Ntp5898
Rp5899
(g18
I01
NNg91
I00
I00
tp5900
bg21
tp5901
g1
(g11
g12
(I0
F14.620000000000001
I3
F-112.66666666666666
tp5902
tp5903
Rp5904
s(g1
(g2
g3
Ntp5905
Rp5906
(g82
I00
NNg370
I00
I00
tp5907
bg180
tp5908
g1
(g11
g12
(I0
F145.23
I41
F-245.78048780487802
tp5909
tp5910
Rp5911
s(g1
(g2
g3
Ntp5912
Rp5913
(g91
I00
g18
I01
g35
I00
I00
tp5914
bg18
tp5915
g1
(g11
g12
(I0
F5.99
I2
F-300.5
tp5916
tp5917
Rp5918
s(g1
(g2
g3
Ntp5919
Rp5920
(g82
I00
NNg370
I00
I00
tp5921
bg370
tp5922
g1
(g11
g12
(I0
F115.22999999999998
I42
F-325.6428571428573
tp5923
tp5924
Rp5925
s(g1
(g2
g3
Ntp5926
Rp5927
(g18
I01
g19
I00
g91
I00
I00
tp5928
bg21
tp5929
g1
(g11
g12
(I0
F2.72
I1
F-328.0
tp5930
tp5931
Rp5932
s(g1
(g2
g3
Ntp5933
Rp5934
(g19
I00
g35
I01
g18
I00
I00
tp5935
bg21
tp5936
g1
(g11
g12
(I0
F2.88
I1
F-312.0
tp5937
tp5938
Rp5939
s(g1
(g2
g3
Ntp5940
Rp5941
(g9
I01
NNNNI00
tp5942
bg151
tp5943
g1
(g11
g12
(I0
F89.57
I31
F-320.12903225806457
tp5944
tp5945
Rp5946
s(g1
(g2
g3
Ntp5947
Rp5948
(g18
I01
g35
I00
g18
I01
I00
tp5949
bg18
tp5950
g1
(g11
g12
(I0
F55.69
I18
F-290.61111111111114
tp5951
tp5952
Rp5953
s(g1
(g2
g3
Ntp5954
Rp5955
(g180
I00
g558
I01
NNI00
tp5956
bg180
tp5957
g1
(g11
g12
(I1
F148.38
I94
F-444.1170212765956
tp5958
tp5959
Rp5960
s(g1
(g2
g3
Ntp5961
Rp5962
(g6
I01
g6
I01
NNI01
tp5963
bg151
tp5964
g1
(g11
g12
(I0
F241.32
I123
F-405.3577235772358
tp5965
tp5966
Rp5967
s(g1
(g2
g3
Ntp5968
Rp5969
(g19
I01
g91
I01
g91
I01
I00
tp5970
bg18
tp5971
g1
(g11
g12
(I0
F2.85
I1
F-315.0
tp5972
tp5973
Rp5974
s(g1
(g2
g3
Ntp5975
Rp5976
(g43
I00
g275
I00
NNI00
tp5977
bg43
tp5978
g1
(g11
g12
(I2
F118.84000000000002
I31
F-216.6451612903226
tp5979
tp5980
Rp5981
s(g1
(g2
g3
Ntp5982
Rp5983
(g18
I00
g91
I00
g35
I01
I00
tp5984
bg18
tp5985
g1
(g11
g12
(I0
F16.51
I5
F-269.8
tp5986
tp5987
Rp5988
s(g1
(g2
g3
Ntp5989
Rp5990
(g19
I01
NNg18
I00
I00
tp5991
bg19
tp5992
g1
(g11
g12
(I0
F3.13
I1
F-287.0
tp5993
tp5994
Rp5995
s(g1
(g2
g3
Ntp5996
Rp5997
(g6
I00
NNg7
I01
I00
tp5998
bg151
tp5999
g1
(g11
g12
(I0
F3.02
I1
F-298.0
tp6000
tp6001
Rp6002
s(g1
(g2
g3
Ntp6003
Rp6004
(g67
I01
g172
I01
NNI00
tp6005
bg66
tp6006
g1
(g11
g12
(I0
F19.69
I14
F-459.3571428571429
tp6007
tp6008
Rp6009
s(g1
(g2
g3
Ntp6010
Rp6011
(g18
I01
g18
I01
g18
I01
I00
tp6012
bg18
tp6013
g1
(g11
g12
(I0
F48.43
I15
F-277.13333333333344
tp6014
tp6015
Rp6016
s(g1
(g2
g3
Ntp6017
Rp6018
(g91
I00
g18
I01
g35
I01
I00
tp6019
bg91
tp6020
g1
(g11
g12
(I0
F6.72
I1
F72.0
tp6021
tp6022
Rp6023
s(g1
(g2
g3
Ntp6024
Rp6025
(g91
I01
g91
I01
g35
I00
I00
tp6026
bg19
tp6027
g1
(g11
g12
(I0
F6.35
I2
F-282.5
tp6028
tp6029
Rp6030
s(g1
(g2
g3
Ntp6031
Rp6032
(g19
I00
NNg91
I00
I01
tp6033
bg91
tp6034
g1
(g11
g12
(I0
F27.880000000000003
I11
F-346.8181818181818
tp6035
tp6036
Rp6037
s(g1
(g2
g3
Ntp6038
Rp6039
(g18
I01
g35
I00
g35
I00
I00
tp6040
bg18
tp6041
g1
(g11
g12
(I0
F3.02
I1
F-298.0
tp6042
tp6043
Rp6044
s(g1
(g2
g3
Ntp6045
Rp6046
(g67
I00
g172
I00
g67
I00
I00
tp6047
bg348
tp6048
g1
(g11
g12
(I0
F127.94
I45
F-315.6888888888889
tp6049
tp6050
Rp6051
s(g1
(g2
g3
Ntp6052
Rp6053
(g35
I00
g35
I00
g18
I01
I00
tp6054
bg21
tp6055
g1
(g11
g12
(I0
F12.559999999999999
I4
F-286.0
tp6056
tp6057
Rp6058
s(g1
(g2
g3
Ntp6059
Rp6060
(g217
I00
g6
I01
NNI00
tp6061
bg9
tp6062
g1
(g11
g12
(I1
F730.8200000000005
I474
F-447.07805907173025
tp6063
tp6064
Rp6065
s(g1
(g2
g3
Ntp6066
Rp6067
(g35
I01
g19
I00
g19
I00
I00
tp6068
bg21
tp6069
g1
(g11
g12
(I0
F11.469999999999999
I3
F-217.66666666666666
tp6070
tp6071
Rp6072
s(g1
(g2
g3
Ntp6073
Rp6074
(g18
I00
g19
I00
g91
I01
I00
tp6075
bg91
tp6076
g1
(g11
g12
(I0
F4.58
I1
F-142.0
tp6077
tp6078
Rp6079
s(g1
(g2
g3
Ntp6080
Rp6081
(g18
I00
g91
I01
g18
I00
I00
tp6082
bg91
tp6083
g1
(g11
g12
(I0
F2.92
I1
F-308.0
tp6084
tp6085
Rp6086
s(g1
(g2
g3
Ntp6087
Rp6088
(g67
I00
g66
I00
g67
I00
I00
tp6089
bg348
tp6090
g1
(g11
g12
(I2
F180.3800000000001
I54
F-265.9629629629631
tp6091
tp6092
Rp6093
s(g1
(g2
g3
Ntp6094
Rp6095
(g141
I01
g469
I00
NNI00
tp6096
bg141
tp6097
g1
(g11
g12
(I0
F225.37999999999994
I126
F-424.539682539683
tp6098
tp6099
Rp6100
s(g1
(g2
g3
Ntp6101
Rp6102
(g6
I00
NNg217
I01
I00
tp6103
bg9
tp6104
g1
(g11
g12
(I1
F13.84
I2
F92.0
tp6105
tp6106
Rp6107
s(g1
(g2
g3
Ntp6108
Rp6109
(g172
I00
g202
I00
g202
I00
I00
tp6110
bg348
tp6111
g1
(g11
g12
(I0
F95.13
I34
F-320.2058823529413
tp6112
tp6113
Rp6114
s(g1
(g2
g3
Ntp6115
Rp6116
(g18
I00
g91
I01
g91
I01
I01
tp6117
bg91
tp6118
g1
(g11
g12
(I0
F6.2
I2
F-290.0
tp6119
tp6120
Rp6121
s(g1
(g2
g3
Ntp6122
Rp6123
(g180
I00
g558
I00
NNI00
tp6124
bg558
tp6125
g1
(g11
g12
(I2
F1949.2400000000014
I708
F-326.0790960451984
tp6126
tp6127
Rp6128
s(g1
(g2
g3
Ntp6129
Rp6130
(g91
I00
g19
I00
g19
I00
I00
tp6131
bg18
tp6132
g1
(g11
g12
(I0
F67.46
I25
F-330.1600000000001
tp6133
tp6134
Rp6135
s(g1
(g2
g3
Ntp6136
Rp6137
(g180
I00
g558
I01
NNI00
tp6138
bg558
tp6139
g1
(g11
g12
(I0
F119.22999999999999
I60
F-401.78333333333313
tp6140
tp6141
Rp6142
s(g1
(g2
g3
Ntp6143
Rp6144
(g19
I00
g91
I01
g91
I01
I01
tp6145
bg19
tp6146
g1
(g11
g12
(I0
F41.15
I13
F-283.46153846153845
tp6147
tp6148
Rp6149
s(g1
(g2
g3
Ntp6150
Rp6151
(g91
I00
g91
I00
g18
I01
I00
tp6152
bg21
tp6153
g1
(g11
g12
(I0
F13.9
I4
F-252.5
tp6154
tp6155
Rp6156
s(g1
(g2
g3
Ntp6157
Rp6158
(g18
I00
g18
I00
g19
I00
I00
tp6159
bg19
tp6160
g1
(g11
g12
(I0
F136.76999999999998
I45
F-301.8444444444445
tp6161
tp6162
Rp6163
s(g1
(g2
g3
Ntp6164
Rp6165
(g35
I00
g91
I01
g91
I01
I00
tp6166
bg35
tp6167
g1
(g11
g12
(I0
F5.75
I2
F-312.5
tp6168
tp6169
Rp6170
s(g1
(g2
g3
Ntp6171
Rp6172
(g35
I00
g19
I00
g19
I00
I00
tp6173
bg91
tp6174
g1
(g11
g12
(I0
F25.770000000000003
I10
F-342.29999999999995
tp6175
tp6176
Rp6177
s(g1
(g2
g3
Ntp6178
Rp6179
(g18
I00
NNg91
I00
I01
tp6180
bg21
tp6181
g1
(g11
g12
(I0
F8.36
I3
F-321.3333333333333
tp6182
tp6183
Rp6184
s(g1
(g2
g3
Ntp6185
Rp6186
(g43
I00
g44
I00
NNI00
tp6187
bg43
tp6188
g1
(g11
g12
(I4
F2378.340000000002
I1446
F-437.885892116182
tp6189
tp6190
Rp6191
s(g1
(g2
g3
Ntp6192
Rp6193
(g82
I00
g370
I01
NNI00
tp6194
bg84
tp6195
g1
(g11
g12
(I0
F233.4800000000001
I200
F-486.15
tp6196
tp6197
Rp6198
s(g1
(g2
g3
Ntp6199
Rp6200
(g6
I01
g7
I00
NNI00
tp6201
bg151
tp6202
g1
(g11
g12
(I0
F131.24999999999997
I103
F-472.6699029126214
tp6203
tp6204
Rp6205
s(g1
(g2
g3
Ntp6206
Rp6207
(g91
I00
g19
I00
g35
I00
I00
tp6208
bg18
tp6209
g1
(g11
g12
(I0
F0.71
I1
F-529.0
tp6210
tp6211
Rp6212
s(g1
(g2
g3
Ntp6213
Rp6214
(g91
I00
g35
I01
NNI00
tp6215
bg35
tp6216
g1
(g11
g12
(I0
F5.300000000000001
I2
F-335.0
tp6217
tp6218
Rp6219
s(g1
(g2
g3
Ntp6220
Rp6221
(g18
I00
g35
I00
g35
I00
I00
tp6222
bg91
tp6223
g1
(g11
g12
(I0
F7.870000000000001
I5
F-442.6
tp6224
tp6225
Rp6226
s(g1
(g2
g3
Ntp6227
Rp6228
(g19
I01
g18
I01
NNI00
tp6229
bg18
tp6230
g1
(g11
g12
(I0
F126.66000000000001
I65
F-405.1384615384615
tp6231
tp6232
Rp6233
s(g1
(g2
g3
Ntp6234
Rp6235
(g91
I00
g35
I00
g91
I00
I00
tp6236
bg35
tp6237
g1
(g11
g12
(I0
F2.94
I1
F-306.0
tp6238
tp6239
Rp6240
s(g1
(g2
g3
Ntp6241
Rp6242
(g19
I01
g18
I01
g18
I01
I00
tp6243
bg21
tp6244
g1
(g11
g12
(I0
F8.68
I4
F-448.0
tp6245
tp6246
Rp6247
s(g1
(g2
g3
Ntp6248
Rp6249
(g558
I00
g558
I00
NNI00
tp6250
bg180
tp6251
g1
(g11
g12
(I1
F205.95
I86
F-371.5232558139535
tp6252
tp6253
Rp6254
s(g1
(g2
g3
Ntp6255
Rp6256
(g19
I00
g19
I00
g18
I00
I00
tp6257
bg21
tp6258
g1
(g11
g12
(I0
F2.86
I1
F-314.0
tp6259
tp6260
Rp6261
s(g1
(g2
g3
Ntp6262
Rp6263
(g172
I01
g67
I01
NNI00
tp6264
bg66
tp6265
g1
(g11
g12
(I0
F21.27
I13
F-436.38461538461536
tp6266
tp6267
Rp6268
s(g1
(g2
g3
Ntp6269
Rp6270
(g217
I00
NNg6
I00
I01
tp6271
bg217
tp6272
g1
(g11
g12
(I1
F30.259999999999998
I9
F-264.11111111111114
tp6273
tp6274
Rp6275
s(g1
(g2
g3
Ntp6276
Rp6277
(g18
I00
g19
I01
g91
I00
I00
tp6278
bg21
tp6279
g1
(g11
g12
(I0
F2.95
I1
F-305.0
tp6280
tp6281
Rp6282
s(g1
(g2
g3
Ntp6283
Rp6284
(g67
I00
g202
I00
g67
I00
I00
tp6285
bg348
tp6286
g1
(g11
g12
(I1
F181.49999999999997
I56
F-275.89285714285717
tp6287
tp6288
Rp6289
s(g1
(g2
g3
Ntp6290
Rp6291
(g19
I00
g19
I00
g35
I00
I00
tp6292
bg18
tp6293
g1
(g11
g12
(I0
F4.64
I1
F-136.0
tp6294
tp6295
Rp6296
s(g1
(g2
g3
Ntp6297
Rp6298
(g18
I00
g91
I00
g91
I00
I01
tp6299
bg21
tp6300
g1
(g11
g12
(I0
F14.520000000000001
I10
F-454.79999999999995
tp6301
tp6302
Rp6303
s(g1
(g2
g3
Ntp6304
Rp6305
(g91
I00
g18
I01
g35
I00
I00
tp6306
bg91
tp6307
g1
(g11
g12
(I0
F19.27
I6
F-278.83333333333337
tp6308
tp6309
Rp6310
s(g1
(g2
g3
Ntp6311
Rp6312
(g202
I00
g66
I00
g66
I00
I00
tp6313
bg348
tp6314
g1
(g11
g12
(I4
F626.3199999999997
I224
F-320.3928571428572
tp6315
tp6316
Rp6317
s(g1
(g2
g3
Ntp6318
Rp6319
(g1067
I00
g275
I00
g275
I00
I00
tp6320
bg275
tp6321
g1
(g11
g12
(I1
F100.99999999999999
I15
F73.33333333333334
tp6322
tp6323
Rp6324
s(g1
(g2
g3
Ntp6325
Rp6326
(g82
I00
g370
I01
NNI00
tp6327
bg558
tp6328
g1
(g11
g12
(I0
F258.49
I199
F-473.20603015075375
tp6329
tp6330
Rp6331
s(g1
(g2
g3
Ntp6332
Rp6333
(g505
I01
g672
I00
NNI01
tp6334
bg1160
tp6335
g1
(g11
g12
(I0
F49.88
I18
F-322.8888888888889
tp6336
tp6337
Rp6338
s(g1
(g2
g3
Ntp6339
Rp6340
(g370
I00
NNg180
I00
I00
tp6341
bg370
tp6342
g1
(g11
g12
(I1
F181.01
I59
F-293.93220338983053
tp6343
tp6344
Rp6345
s(g1
(g2
g3
Ntp6346
Rp6347
(g35
I00
g91
I01
NNI01
tp6348
bg21
tp6349
g1
(g11
g12
(I0
F7.73
I4
F-406.75
tp6350
tp6351
Rp6352
s(g1
(g2
g3
Ntp6353
Rp6354
(g18
I00
g35
I01
g35
I01
I00
tp6355
bg35
tp6356
g1
(g11
g12
(I0
F5.22
I1
F-78.0
tp6357
tp6358
Rp6359
s(g1
(g2
g3
Ntp6360
Rp6361
(g9
I01
NNg9
I01
I00
tp6362
bg6
tp6363
g1
(g11
g12
(I0
F10.44
I5
F-391.20000000000005
tp6364
tp6365
Rp6366
s(g1
(g2
g3
Ntp6367
Rp6368
(g35
I00
g35
I00
g18
I01
I00
tp6369
bg18
tp6370
g1
(g11
g12
(I0
F9.08
I3
F-297.3333333333333
tp6371
tp6372
Rp6373
s(g1
(g2
g3
Ntp6374
Rp6375
(g18
I01
g91
I00
g35
I00
I00
tp6376
bg18
tp6377
g1
(g11
g12
(I0
F30.900000000000002
I10
F-291.00000000000006
tp6378
tp6379
Rp6380
s(g1
(g2
g3
Ntp6381
Rp6382
(g67
I01
g202
I00
NNI00
tp6383
bg66
tp6384
g1
(g11
g12
(I0
F109.25000000000001
I89
F-486.3820224719101
tp6385
tp6386
Rp6387
s(g1
(g2
g3
Ntp6388
Rp6389
(g19
I00
NNg91
I00
I01
tp6390
bg19
tp6391
g1
(g11
g12
(I0
F63.32
I19
F-266.7368421052631
tp6392
tp6393
Rp6394
s(g1
(g2
g3
Ntp6395
Rp6396
(g82
I01
g558
I00
NNI00
tp6397
bg558
tp6398
g1
(g11
g12
(I0
F318.28000000000014
I142
F-378.0281690140844
tp6399
tp6400
Rp6401
s(g1
(g2
g3
Ntp6402
Rp6403
(g82
I01
NNNNI00
tp6404
bg180
tp6405
g1
(g11
g12
(I0
F55.599999999999994
I21
F-341.76190476190476
tp6406
tp6407
Rp6408
s(g1
(g2
g3
Ntp6409
Rp6410
(g142
I00
NNg141
I00
I00
tp6411
bg253
tp6412
g1
(g11
g12
(I0
F45.72
I14
F-273.4285714285714
tp6413
tp6414
Rp6415
s(g1
(g2
g3
Ntp6416
Rp6417
(g370
I00
NNg180
I01
I00
tp6418
bg84
tp6419
g1
(g11
g12
(I0
F0.76
I1
F-524.0
tp6420
tp6421
Rp6422
s(g1
(g2
g3
Ntp6423
Rp6424
(g142
I01
g253
I01
NNI00
tp6425
bg544
tp6426
g1
(g11
g12
(I0
F36.88
I22
F-432.3636363636363
tp6427
tp6428
Rp6429
s(g1
(g2
g3
Ntp6430
Rp6431
(g82
I00
NNg180
I01
I00
tp6432
bg558
tp6433
g1
(g11
g12
(I0
F15.01
I5
F-299.8
tp6434
tp6435
Rp6436
s(g1
(g2
g3
Ntp6437
Rp6438
(g44
I00
g275
I00
g1067
I00
I00
tp6439
bg275
tp6440
g1
(g11
g12
(I0
F36.27
I9
F-197.0
tp6441
tp6442
Rp6443
s(g1
(g2
g3
Ntp6444
Rp6445
(g35
I01
g91
I00
g18
I00
I00
tp6446
bg21
tp6447
g1
(g11
g12
(I0
F2.99
I1
F-301.0
tp6448
tp6449
Rp6450
s(g1
(g2
g3
Ntp6451
Rp6452
(g172
I00
g172
I00
g67
I00
I00
tp6453
bg348
tp6454
g1
(g11
g12
(I0
F135.94000000000003
I60
F-374.2333333333331
tp6455
tp6456
Rp6457
s(g1
(g2
g3
Ntp6458
Rp6459
(g180
I01
g558
I00
NNI00
tp6460
bg558
tp6461
g1
(g11
g12
(I0
F372.1099999999999
I133
F-320.6315789473686
tp6462
tp6463
Rp6464
s(g1
(g2
g3
Ntp6465
Rp6466
(g6
I01
NNNNI01
tp6467
bg6
tp6468
g1
(g11
g12
(I0
F36.580000000000005
I15
F-356.13333333333327
tp6469
tp6470
Rp6471
s(g1
(g2
g3
Ntp6472
Rp6473
(g35
I00
g35
I00
g35
I00
I00
tp6474
bg18
tp6475
g1
(g11
g12
(I1
F24.69
I7
F-247.28571428571428
tp6476
tp6477
Rp6478
s(g1
(g2
g3
Ntp6479
Rp6480
(g9
I00
g6
I00
NNI00
tp6481
bg217
tp6482
g1
(g11
g12
(I2
F1188.9599999999982
I681
F-426.5756240822325
tp6483
tp6484
Rp6485
s(g1
(g2
g3
Ntp6486
Rp6487
(g469
I01
NNg469
I01
I00
tp6488
bg141
tp6489
g1
(g11
g12
(I0
F5.57
I3
F-414.3333333333333
tp6490
tp6491
Rp6492
s(g1
(g2
g3
Ntp6493
Rp6494
(g19
I01
g19
I01
g91
I00
I00
tp6495
bg21
tp6496
g1
(g11
g12
(I0
F2.94
I1
F-306.0
tp6497
tp6498
Rp6499
s(g1
(g2
g3
Ntp6500
Rp6501
(g9
I00
g6
I00
NNI00
tp6502
bg151
tp6503
g1
(g11
g12
(I4
F1100.860000000001
I705
F-445.8695035460999
tp6504
tp6505
Rp6506
s(g1
(g2
g3
Ntp6507
Rp6508
(g9
I00
g7
I01
NNI00
tp6509
bg9
tp6510
g1
(g11
g12
(I2
F259.7999999999999
I171
F-453.46198830409344
tp6511
tp6512
Rp6513
s(g1
(g2
g3
Ntp6514
Rp6515
(g172
I00
g202
I00
g172
I00
I00
tp6516
bg66
tp6517
g1
(g11
g12
(I0
F38.17
I14
F-327.35714285714283
tp6518
tp6519
Rp6520
s(g1
(g2
g3
Ntp6521
Rp6522
(g172
I01
g172
I01
g67
I00
I00
tp6523
bg67
tp6524
g1
(g11
g12
(I0
F8.69
I3
F-310.3333333333333
tp6525
tp6526
Rp6527
s(g1
(g2
g3
Ntp6528
Rp6529
(g18
I01
g91
I00
g35
I00
I00
tp6530
bg35
tp6531
g1
(g11
g12
(I0
F31.889999999999997
I10
F-281.1
tp6532
tp6533
Rp6534
s(g1
(g2
g3
Ntp6535
Rp6536
(g18
I01
g91
I00
NNI01
tp6537
bg91
tp6538
g1
(g11
g12
(I0
F4.23
I2
F-388.5
tp6539
tp6540
Rp6541
s(g1
(g2
g3
Ntp6542
Rp6543
(g202
I00
g66
I00
g172
I00
I00
tp6544
bg66
tp6545
g1
(g11
g12
(I0
F200.53999999999994
I72
F-321.47222222222234
tp6546
tp6547
Rp6548
s(g1
(g2
g3
Ntp6549
Rp6550
(g67
I00
g66
I00
g66
I00
I00
tp6551
bg67
tp6552
g1
(g11
g12
(I3
F523.1999999999999
I184
F-315.7119565217393
tp6553
tp6554
Rp6555
s(g1
(g2
g3
Ntp6556
Rp6557
(g217
I01
g217
I01
NNI00
tp6558
bg151
tp6559
g1
(g11
g12
(I2
F354.21999999999974
I207
F-431.415458937198
tp6560
tp6561
Rp6562
s(g1
(g2
g3
Ntp6563
Rp6564
(g35
I01
g35
I01
NNI00
tp6565
bg19
tp6566
g1
(g11
g12
(I1
F14.68
I3
F-110.66666666666666
tp6567
tp6568
Rp6569
s(g1
(g2
g3
Ntp6570
Rp6571
(g18
I01
g35
I01
g91
I00
I00
tp6572
bg21
tp6573
g1
(g11
g12
(I0
F3.13
I1
F-287.0
tp6574
tp6575
Rp6576
s(g1
(g2
g3
Ntp6577
Rp6578
(g172
I00
g66
I00
g172
I00
I00
tp6579
bg348
tp6580
g1
(g11
g12
(I0
F249.48
I85
F-307.4705882352941
tp6581
tp6582
Rp6583
s(g1
(g2
g3
Ntp6584
Rp6585
(g141
I00
g142
I01
NNI00
tp6586
bg141
tp6587
g1
(g11
g12
(I0
F176.23000000000002
I109
F-438.44036697247736
tp6588
tp6589
Rp6590
s(g1
(g2
g3
Ntp6591
Rp6592
(g558
I00
NNg370
I00
I00
tp6593
bg84
tp6594
g1
(g11
g12
(I0
F58.9
I17
F-258.52941176470586
tp6595
tp6596
Rp6597
s(g1
(g2
g3
Ntp6598
Rp6599
(g514
I00
NNg687
I00
I00
tp6600
bg2589
tp6601
g1
(g11
g12
(I0
F59.47
I18
F-269.61111111111103
tp6602
tp6603
Rp6604
s(g1
(g2
g3
Ntp6605
Rp6606
(g18
I00
g91
I00
g19
I00
I00
tp6607
bg19
tp6608
g1
(g11
g12
(I0
F129.08
I45
F-313.1555555555557
tp6609
tp6610
Rp6611
s(g1
(g2
g3
Ntp6612
Rp6613
(g35
I01
g19
I00
g19
I00
I00
tp6614
bg18
tp6615
g1
(g11
g12
(I0
F3.02
I1
F-298.0
tp6616
tp6617
Rp6618
s(g1
(g2
g3
Ntp6619
Rp6620
(g35
I00
g18
I00
g35
I00
I00
tp6621
bg18
tp6622
g1
(g11
g12
(I0
F121.7
I45
F-329.8444444444443
tp6623
tp6624
Rp6625
s(g1
(g2
g3
Ntp6626
Rp6627
(g142
I01
g469
I01
NNI00
tp6628
bg469
tp6629
g1
(g11
g12
(I0
F62.14
I36
F-429.7222222222222
tp6630
tp6631
Rp6632
s(g1
(g2
g3
Ntp6633
Rp6634
(g35
I01
g91
I01
g91
I01
I00
tp6635
bg21
tp6636
g1
(g11
g12
(I0
F2.61
I1
F-339.0
tp6637
tp6638
Rp6639
s(g1
(g2
g3
Ntp6640
Rp6641
(g91
I00
g91
I00
g91
I00
I01
tp6642
bg18
tp6643
g1
(g11
g12
(I0
F320.7500000000001
I147
F-382.6054421768709
tp6644
tp6645
Rp6646
s(g1
(g2
g3
Ntp6647
Rp6648
(g142
I00
g469
I01
NNI00
tp6649
bg141
tp6650
g1
(g11
g12
(I0
F120.03999999999998
I63
F-416.76190476190453
tp6651
tp6652
Rp6653
s(g1
(g2
g3
Ntp6654
Rp6655
(g19
I00
g19
I00
g18
I00
I00
tp6656
bg19
tp6657
g1
(g11
g12
(I0
F12.83
I4
F-279.25
tp6658
tp6659
Rp6660
s(g1
(g2
g3
Ntp6661
Rp6662
(g9
I00
NNNNI00
tp6663
bg7
tp6664
g1
(g11
g12
(I1
F322.95
I105
F-293.9714285714285
tp6665
tp6666
Rp6667
s(g1
(g2
g3
Ntp6668
Rp6669
(g253
I01
g142
I01
NNI00
tp6670
bg142
tp6671
g1
(g11
g12
(I2
F233.83999999999992
I77
F-296.3116883116885
tp6672
tp6673
Rp6674
s(g1
(g2
g3
Ntp6675
Rp6676
(g9
I01
g6
I00
NNI00
tp6677
bg7
tp6678
g1
(g11
g12
(I1
F232.94000000000014
I126
F-419.58730158730185
tp6679
tp6680
Rp6681
s(g1
(g2
g3
Ntp6682
Rp6683
(g91
I00
g35
I01
NNI00
tp6684
bg21
tp6685
g1
(g11
g12
(I0
F4.36
I1
F-164.0
tp6686
tp6687
Rp6688
s(g1
(g2
g3
Ntp6689
Rp6690
(g82
I01
g82
I01
NNI00
tp6691
bg558
tp6692
g1
(g11
g12
(I0
F121.19000000000004
I93
F-479.6236559139785
tp6693
tp6694
Rp6695
s(g1
(g2
g3
Ntp6696
Rp6697
(g6
I01
g7
I00
NNI00
tp6698
bg9
tp6699
g1
(g11
g12
(I0
F127.57000000000001
I103
F-476.1456310679612
tp6700
tp6701
Rp6702
s(g1
(g2
g3
Ntp6703
Rp6704
(g172
I00
g202
I00
g66
I00
I00
tp6705
bg348
tp6706
g1
(g11
g12
(I0
F192.97000000000003
I69
F-320.5797101449277
tp6707
tp6708
Rp6709
s(g1
(g2
g3
Ntp6710
Rp6711
(g35
I00
g91
I00
g35
I00
I00
tp6712
bg91
tp6713
g1
(g11
g12
(I0
F125.73
I47
F-332.4893617021276
tp6714
tp6715
Rp6716
s(g1
(g2
g3
Ntp6717
Rp6718
(g275
I00
g1067
I00
g1067
I00
I00
tp6719
bg277
tp6720
g1
(g11
g12
(I2
F153.08999999999997
I36
F-174.75000000000003
tp6721
tp6722
Rp6723
s(g1
(g2
g3
Ntp6724
Rp6725
(g91
I01
g91
I01
g19
I00
I00
tp6726
bg35
tp6727
g1
(g11
g12
(I0
F2.38
I1
F-362.0
tp6728
tp6729
Rp6730
s(g1
(g2
g3
Ntp6731
Rp6732
(g18
I00
g91
I00
g91
I00
I01
tp6733
bg91
tp6734
g1
(g11
g12
(I0
F29.83
I10
F-307.5
tp6735
tp6736
Rp6737
s(g1
(g2
g3
Ntp6738
Rp6739
(g253
I00
g469
I00
NNI01
tp6740
bg469
tp6741
g1
(g11
g12
(I0
F71.89999999999998
I30
F-360.3333333333333
tp6742
tp6743
Rp6744
s(g1
(g2
g3
Ntp6745
Rp6746
(g202
I00
g172
I00
g172
I00
I00
tp6747
bg202
tp6748
g1
(g11
g12
(I1
F884.05
I287
F-293.0522648083627
tp6749
tp6750
Rp6751
s(g1
(g2
g3
Ntp6752
Rp6753
(g18
I00
g19
I01
g91
I01
I00
tp6754
bg91
tp6755
g1
(g11
g12
(I0
F2.85
I1
F-315.0
tp6756
tp6757
Rp6758
s(g1
(g2
g3
Ntp6759
Rp6760
(g67
I00
g66
I01
g66
I01
I00
tp6761
bg172
tp6762
g1
(g11
g12
(I1
F24.22
I3
F207.33333333333331
tp6763
tp6764
Rp6765
s(g1
(g2
g3
Ntp6766
Rp6767
(g35
I01
g91
I00
g35
I01
I00
tp6768
bg21
tp6769
g1
(g11
g12
(I0
F3.04
I1
F-296.0
tp6770
tp6771
Rp6772
s(g1
(g2
g3
Ntp6773
Rp6774
(g217
I01
NNg217
I01
I00
tp6775
bg7
tp6776
g1
(g11
g12
(I0
F28.73
I8
F-240.87499999999994
tp6777
tp6778
Rp6779
s(g1
(g2
g3
Ntp6780
Rp6781
(g18
I01
NNg35
I00
I00
tp6782
bg18
tp6783
g1
(g11
g12
(I0
F4.7
I1
F-130.0
tp6784
tp6785
Rp6786
s(g1
(g2
g3
Ntp6787
Rp6788
(g66
I00
g202
I00
g202
I00
I00
tp6789
bg67
tp6790
g1
(g11
g12
(I1
F83.73999999999998
I27
F-289.85185185185173
tp6791
tp6792
Rp6793
s(g1
(g2
g3
Ntp6794
Rp6795
(g664
I00
NNg505
I00
I00
tp6796
bg505
tp6797
g1
(g11
g12
(I0
F58.19
I15
F-212.0666666666667
tp6798
tp6799
Rp6800
s(g1
(g2
g3
Ntp6801
Rp6802
(g217
I00
NNg217
I00
I00
tp6803
bg7
tp6804
g1
(g11
g12
(I0
F342.64000000000004
I117
F-309.03418803418816
tp6805
tp6806
Rp6807
s(g1
(g2
g3
Ntp6808
Rp6809
(g18
I00
g35
I01
g18
I00
I00
tp6810
bg19
tp6811
g1
(g11
g12
(I0
F13.73
I4
F-256.75
tp6812
tp6813
Rp6814
s(g1
(g2
g3
Ntp6815
Rp6816
(g91
I00
g91
I00
g35
I01
I00
tp6817
bg35
tp6818
g1
(g11
g12
(I0
F29.799999999999997
I10
F-301.99999999999994
tp6819
tp6820
Rp6821
s(g1
(g2
g3
Ntp6822
Rp6823
(g217
I00
NNNNI00
tp6824
bg6
tp6825
g1
(g11
g12
(I3
F612.3100000000001
I211
F-312.9905213270142
tp6826
tp6827
Rp6828
s(g1
(g2
g3
Ntp6829
Rp6830
(g9
I00
NNNNI01
tp6831
bg151
tp6832
g1
(g11
g12
(I1
F14.599999999999998
I5
F-308.0
tp6833
tp6834
Rp6835
s(g1
(g2
g3
Ntp6836
Rp6837
(g202
I01
g66
I01
NNI01
tp6838
bg66
tp6839
g1
(g11
g12
(I0
F30.1
I10
F-299.00000000000006
tp6840
tp6841
Rp6842
s(g1
(g2
g3
Ntp6843
Rp6844
(g91
I00
g91
I00
g18
I01
I00
tp6845
bg18
tp6846
g1
(g11
g12
(I0
F9.0
I3
F-300.0
tp6847
tp6848
Rp6849
s(g1
(g2
g3
Ntp6850
Rp6851
(g18
I00
g18
I00
g19
I00
I00
tp6852
bg21
tp6853
g1
(g11
g12
(I0
F127.22999999999999
I46
F-323.4130434782608
tp6854
tp6855
Rp6856
s(g1
(g2
g3
Ntp6857
Rp6858
(g19
I00
g91
I01
g91
I01
I01
tp6859
bg21
tp6860
g1
(g11
g12
(I0
F29.18
I10
F-308.2
tp6861
tp6862
Rp6863
s(g1
(g2
g3
Ntp6864
Rp6865
(g19
I01
g19
I01
g91
I00
I00
tp6866
bg35
tp6867
g1
(g11
g12
(I0
F2.88
I1
F-312.0
tp6868
tp6869
Rp6870
s(g1
(g2
g3
Ntp6871
Rp6872
(g217
I01
g217
I01
NNI00
tp6873
bg9
tp6874
g1
(g11
g12
(I1
F346.8399999999999
I206
F-433.9417475728158
tp6875
tp6876
Rp6877
s(g1
(g2
g3
Ntp6878
Rp6879
(g43
I00
g44
I00
g44
I00
I00
tp6880
bg43
tp6881
g1
(g11
g12
(I1
F206.92000000000004
I64
F-276.68749999999983
tp6882
tp6883
Rp6884
s(g1
(g2
g3
Ntp6885
Rp6886
(g18
I01
NNg35
I00
I00
tp6887
bg19
tp6888
g1
(g11
g12
(I0
F4.83
I1
F-117.0
tp6889
tp6890
Rp6891
s(g1
(g2
g3
Ntp6892
Rp6893
(g91
I01
g35
I01
NNI00
tp6894
bg35
tp6895
g1
(g11
g12
(I0
F2.48
I1
F-352.0
tp6896
tp6897
Rp6898
s(g1
(g2
g3
Ntp6899
Rp6900
(g9
I00
NNNNI01
tp6901
bg9
tp6902
g1
(g11
g12
(I0
F15.9
I10
F-441.00000000000006
tp6903
tp6904
Rp6905
s(g1
(g2
g3
Ntp6906
Rp6907
(g35
I00
g91
I01
g35
I00
I00
tp6908
bg19
tp6909
g1
(g11
g12
(I0
F2.99
I1
F-301.0
tp6910
tp6911
Rp6912
s(g1
(g2
g3
Ntp6913
Rp6914
(g82
I00
NNg370
I01
I00
tp6915
bg82
tp6916
g1
(g11
g12
(I0
F7.6
I3
F-346.66666666666663
tp6917
tp6918
Rp6919
s(g1
(g2
g3
Ntp6920
Rp6921
(g66
I01
g172
I00
NNI00
tp6922
bg67
tp6923
g1
(g11
g12
(I0
F146.57999999999998
I96
F-448.3645833333334
tp6924
tp6925
Rp6926
s(g1
(g2
g3
Ntp6927
Rp6928
(g9
I01
g217
I01
NNI00
tp6929
bg9
tp6930
g1
(g11
g12
(I0
F32.510000000000005
I22
F-452.81818181818176
tp6931
tp6932
Rp6933
s(g1
(g2
g3
Ntp6934
Rp6935
(g18
I01
g91
I00
g19
I00
I00
tp6936
bg35
tp6937
g1
(g11
g12
(I0
F2.84
I1
F-316.0
tp6938
tp6939
Rp6940
s(g1
(g2
g3
Ntp6941
Rp6942
(g18
I01
g19
I00
g19
I00
I00
tp6943
bg19
tp6944
g1
(g11
g12
(I0
F6.5600000000000005
I2
F-272.0
tp6945
tp6946
Rp6947
s(g1
(g2
g3
Ntp6948
Rp6949
(g82
I00
g370
I01
NNI00
tp6950
bg370
tp6951
g1
(g11
g12
(I0
F253.68000000000004
I200
F-473.1600000000002
tp6952
tp6953
Rp6954
s(g1
(g2
g3
Ntp6955
Rp6956
(g172
I00
g66
I00
g66
I00
I00
tp6957
bg172
tp6958
g1
(g11
g12
(I11
F1757.7599999999993
I632
F-322.4050632911394
tp6959
tp6960
Rp6961
s(g1
(g2
g3
Ntp6962
Rp6963
(g202
I00
g172
I01
NNI00
tp6964
bg67
tp6965
g1
(g11
g12
(I0
F247.95000000000007
I145
F-429.0000000000002
tp6966
tp6967
Rp6968
s(g1
(g2
g3
Ntp6969
Rp6970
(g82
I00
NNg370
I00
I00
tp6971
bg558
tp6972
g1
(g11
g12
(I0
F156.11
I42
F-234.50000000000003
tp6973
tp6974
Rp6975
s(g1
(g2
g3
Ntp6976
Rp6977
(g141
I01
g469
I00
NNI00
tp6978
bg253
tp6979
g1
(g11
g12
(I0
F209.05999999999995
I126
F-434.0793650793655
tp6980
tp6981
Rp6982
s(g1
(g2
g3
Ntp6983
Rp6984
(g91
I00
g18
I01
g35
I00
I00
tp6985
bg21
tp6986
g1
(g11
g12
(I0
F7.82
I2
F-209.0
tp6987
tp6988
Rp6989
s(g1
(g2
g3
Ntp6990
Rp6991
(g1067
I00
g1067
I00
g1067
I00
I00
tp6992
bg275
tp6993
g1
(g11
g12
(I1
F68.16999999999999
I14
F-113.0714285714286
tp6994
tp6995
Rp6996
s(g1
(g2
g3
Ntp6997
Rp6998
(g19
I01
g91
I00
g91
I00
I00
tp6999
bg18
tp7000
g1
(g11
g12
(I0
F53.41
I16
F-266.1875
tp7001
tp7002
Rp7003
s(g1
(g2
g3
Ntp7004
Rp7005
(g217
I00
NNNNI01
tp7006
bg217
tp7007
g1
(g11
g12
(I0
F49.830000000000005
I21
F-362.7142857142856
tp7008
tp7009
Rp7010
s(g1
(g2
g3
Ntp7011
Rp7012
(g35
I00
g91
I00
g91
I00
I01
tp7013
bg35
tp7014
g1
(g11
g12
(I0
F2.99
I3
F-500.33333333333337
tp7015
tp7016
Rp7017
s(g1
(g2
g3
Ntp7018
Rp7019
(g202
I00
g66
I00
g66
I00
I00
tp7020
bg202
tp7021
g1
(g11
g12
(I6
F1458.3100000000009
I517
F-318.0909090909097
tp7022
tp7023
Rp7024
s(g1
(g2
g3
Ntp7025
Rp7026
(g172
I00
g202
I00
g66
I00
I00
tp7027
bg172
tp7028
g1
(g11
g12
(I0
F423.4099999999998
I138
F-293.18115942028993
tp7029
tp7030
Rp7031
s(g1
(g2
g3
Ntp7032
Rp7033
(g91
I00
g19
I00
g35
I00
I00
tp7034
bg91
tp7035
g1
(g11
g12
(I0
F9.47
I3
F-284.3333333333333
tp7036
tp7037
Rp7038
s(g1
(g2
g3
Ntp7039
Rp7040
(g19
I00
g18
I01
g18
I01
I00
tp7041
bg21
tp7042
g1
(g11
g12
(I0
F25.369999999999997
I7
F-274.7142857142858
tp7043
tp7044
Rp7045
s(g1
(g2
g3
Ntp7046
Rp7047
(g91
I00
NNg35
I01
I00
tp7048
bg19
tp7049
g1
(g11
g12
(I0
F4.66
I1
F-134.0
tp7050
tp7051
Rp7052
s(g1
(g2
g3
Ntp7053
Rp7054
(g202
I00
g66
I00
g202
I00
I00
tp7055
bg348
tp7056
g1
(g11
g12
(I1
F240.15999999999997
I76
F-283.99999999999994
tp7057
tp7058
Rp7059
s(g1
(g2
g3
Ntp7060
Rp7061
(g35
I01
g19
I00
g91
I01
I00
tp7062
bg35
tp7063
g1
(g11
g12
(I0
F3.03
I1
F-297.0
tp7064
tp7065
Rp7066
s(g1
(g2
g3
Ntp7067
Rp7068
(g558
I01
g370
I01
NNI00
tp7069
bg84
tp7070
g1
(g11
g12
(I0
F50.339999999999996
I37
F-464.3513513513514
tp7071
tp7072
Rp7073
s(g1
(g2
g3
Ntp7074
Rp7075
(g18
I01
g91
I00
NNI01
tp7076
bg21
tp7077
g1
(g11
g12
(I0
F9.26
I3
F-291.3333333333333
tp7078
tp7079
Rp7080
s(g1
(g2
g3
Ntp7081
Rp7082
(g558
I00
g370
I01
NNI00
tp7083
bg180
tp7084
g1
(g11
g12
(I0
F103.49
I65
F-440.7846153846152
tp7085
tp7086
Rp7087
s(g1
(g2
g3
Ntp7088
Rp7089
(g18
I00
g35
I00
g91
I00
I00
tp7090
bg35
tp7091
g1
(g11
g12
(I0
F4.47
I3
F-451.0
tp7092
tp7093
Rp7094
s(g1
(g2
g3
Ntp7095
Rp7096
(g43
I00
g43
I00
g1067
I00
I00
tp7097
bg44
tp7098
g1
(g11
g12
(I2
F342.16
I126
F-328.53174603174614
tp7099
tp7100
Rp7101
s(g1
(g2
g3
Ntp7102
Rp7103
(g505
I01
NNg504
I00
I00
tp7104
bg664
tp7105
g1
(g11
g12
(I0
F5.390000000000001
I2
F-330.5
tp7106
tp7107
Rp7108
s(g1
(g2
g3
Ntp7109
Rp7110
(g91
I00
g35
I01
NNI00
tp7111
bg91
tp7112
g1
(g11
g12
(I0
F0.98
I1
F-502.0
tp7113
tp7114
Rp7115
s(g1
(g2
g3
Ntp7116
Rp7117
(g172
I01
g202
I00
g202
I00
I00
tp7118
bg348
tp7119
g1
(g11
g12
(I0
F8.870000000000001
I3
F-304.3333333333333
tp7120
tp7121
Rp7122
s(g1
(g2
g3
Ntp7123
Rp7124
(g18
I01
g91
I00
NNI01
tp7125
bg18
tp7126
g1
(g11
g12
(I0
F4.45
I2
F-377.5
tp7127
tp7128
Rp7129
s(g1
(g2
g3
Ntp7130
Rp7131
(g6
I00
NNNNI01
tp7132
bg6
tp7133
g1
(g11
g12
(I0
F287.41999999999996
I110
F-341.91818181818195
tp7134
tp7135
Rp7136
s(g1
(g2
g3
Ntp7137
Rp7138
(g35
I00
g18
I00
g91
I00
I00
tp7139
bg18
tp7140
g1
(g11
g12
(I0
F23.37
I7
F-266.14285714285717
tp7141
tp7142
Rp7143
s(g1
(g2
g3
Ntp7144
Rp7145
(g18
I00
g91
I01
g35
I01
I00
tp7146
bg19
tp7147
g1
(g11
g12
(I0
F3.23
I1
F-277.0
tp7148
tp7149
Rp7150
s(g1
(g2
g3
Ntp7151
Rp7152
(g18
I01
g18
I01
g18
I01
I00
tp7153
bg91
tp7154
g1
(g11
g12
(I0
F27.29
I8
F-258.875
tp7155
tp7156
Rp7157
s(g1
(g2
g3
Ntp7158
Rp7159
(g9
I01
g6
I00
NNI00
tp7160
bg6
tp7161
g1
(g11
g12
(I0
F330.0399999999999
I120
F-325.65833333333325
tp7162
tp7163
Rp7164
s(g1
(g2
g3
Ntp7165
Rp7166
(g19
I01
g18
I00
g18
I00
I00
tp7167
bg21
tp7168
g1
(g11
g12
(I0
F17.6
I5
F-248.0
tp7169
tp7170
Rp7171
s(g1
(g2
g3
Ntp7172
Rp7173
(g18
I01
g19
I00
g18
I01
I00
tp7174
bg21
tp7175
g1
(g11
g12
(I0
F3.1
I1
F-290.0
tp7176
tp7177
Rp7178
s(g1
(g2
g3
Ntp7179
Rp7180
(g19
I00
NNg91
I00
I01
tp7181
bg18
tp7182
g1
(g11
g12
(I0
F31.18
I11
F-316.54545454545456
tp7183
tp7184
Rp7185
s(g1
(g2
g3
Ntp7186
Rp7187
(g217
I00
g6
I01
NNI00
tp7188
bg7
tp7189
g1
(g11
g12
(I2
F726.0000000000007
I484
F-450.33057851239676
tp7190
tp7191
Rp7192
s(g1
(g2
g3
Ntp7193
Rp7194
(g82
I00
NNg370
I01
I00
tp7195
bg558
tp7196
g1
(g11
g12
(I0
F9.09
I2
F-145.5
tp7197
tp7198
Rp7199
s(g1
(g2
g3
Ntp7200
Rp7201
(g217
I00
g6
I00
NNI00
tp7202
bg7
tp7203
g1
(g11
g12
(I2
F3949.260000000003
I2736
F-457.3358918128658
tp7204
tp7205
Rp7206
s(g1
(g2
g3
Ntp7207
Rp7208
(g217
I00
NNg6
I00
I00
tp7209
bg151
tp7210
g1
(g11
g12
(I2
F195.89999999999995
I61
F-283.90163934426215
tp7211
tp7212
Rp7213
s(g1
(g2
g3
Ntp7214
Rp7215
(g19
I01
g35
I00
g18
I00
I00
tp7216
bg19
tp7217
g1
(g11
g12
(I0
F14.42
I5
F-311.6
tp7218
tp7219
Rp7220
s(g1
(g2
g3
Ntp7221
Rp7222
(g82
I01
g370
I00
NNI00
tp7223
bg558
tp7224
g1
(g11
g12
(I3
F340.8800000000002
I145
F-367.9310344827588
tp7225
tp7226
Rp7227
s(g1
(g2
g3
Ntp7228
Rp7229
(g141
I01
g469
I01
NNI00
tp7230
bg141
tp7231
g1
(g11
g12
(I0
F120.07000000000001
I105
F-485.64761904761895
tp7232
tp7233
Rp7234
s(g1
(g2
g3
Ntp7235
Rp7236
(g18
I00
g35
I01
g18
I00
I00
tp7237
bg21
tp7238
g1
(g11
g12
(I0
F16.74
I5
F-265.2
tp7239
tp7240
Rp7241
s(g1
(g2
g3
Ntp7242
Rp7243
(g180
I00
g558
I00
NNI00
tp7244
bg82
tp7245
g1
(g11
g12
(I2
F1187.4599999999998
I706
F-434.51841359773346
tp7246
tp7247
Rp7248
s(g1
(g2
g3
Ntp7249
Rp7250
(g9
I01
g6
I01
NNI00
tp7251
bg9
tp7252
g1
(g11
g12
(I2
F77.04000000000002
I44
F-424.97727272727275
tp7253
tp7254
Rp7255
s(g1
(g2
g3
Ntp7256
Rp7257
(g35
I00
g18
I00
g91
I00
I00
tp7258
bg21
tp7259
g1
(g11
g12
(I0
F25.11
I7
F-241.2857142857143
tp7260
tp7261
Rp7262
s(g1
(g2
g3
Ntp7263
Rp7264
(g19
I00
g35
I00
g91
I00
I00
tp7265
bg19
tp7266
g1
(g11
g12
(I0
F3.87
I2
F-406.5
tp7267
tp7268
Rp7269
s(g1
(g2
g3
Ntp7270
Rp7271
(g35
I00
NNg91
I00
I01
tp7272
bg91
tp7273
g1
(g11
g12
(I0
F7.02
I1
F102.0
tp7274
tp7275
Rp7276
s(g1
(g2
g3
Ntp7277
Rp7278
(g18
I01
g19
I00
g91
I00
I00
tp7279
bg35
tp7280
g1
(g11
g12
(I0
F4.82
I1
F-118.0
tp7281
tp7282
Rp7283
s(g1
(g2
g3
Ntp7284
Rp7285
(g370
I00
g370
I00
NNI01
tp7286
bg180
tp7287
g1
(g11
g12
(I1
F677.7500000000007
I358
F-412.66480446927386
tp7288
tp7289
Rp7290
s(g1
(g2
g3
Ntp7291
Rp7292
(g43
I01
g43
I01
g43
I01
I00
tp7293
bg44
tp7294
g1
(g11
g12
(I0
F70.58999999999999
I19
F-228.47368421052624
tp7295
tp7296
Rp7297
s(g1
(g2
g3
Ntp7298
Rp7299
(g469
I00
NNg469
I00
I01
tp7300
bg544
tp7301
g1
(g11
g12
(I0
F67.81
I25
F-328.76
tp7302
tp7303
Rp7304
s(g1
(g2
g3
Ntp7305
Rp7306
(g141
I01
NNg253
I01
I00
tp7307
bg142
tp7308
g1
(g11
g12
(I0
F3.37
I2
F-431.5
tp7309
tp7310
Rp7311
s(g1
(g2
g3
Ntp7312
Rp7313
(g35
I00
g18
I01
NNI00
tp7314
bg19
tp7315
g1
(g11
g12
(I0
F69.5
I34
F-395.5882352941177
tp7316
tp7317
Rp7318
s(g1
(g2
g3
Ntp7319
Rp7320
(g370
I00
NNg558
I00
I00
tp7321
bg82
tp7322
g1
(g11
g12
(I0
F96.72999999999999
I28
F-254.5357142857143
tp7323
tp7324
Rp7325
s(g1
(g2
g3
Ntp7326
Rp7327
(g82
I00
g82
I00
NNI00
tp7328
bg558
tp7329
g1
(g11
g12
(I0
F583.8299999999999
I466
F-475.48712446351936
tp7330
tp7331
Rp7332
s(g1
(g2
g3
Ntp7333
Rp7334
(g6
I01
g6
I01
NNI00
tp7335
bg217
tp7336
g1
(g11
g12
(I1
F1351.4399999999996
I1016
F-468.5944881889762
tp7337
tp7338
Rp7339
s(g1
(g2
g3
Ntp7340
Rp7341
(g19
I01
NNg19
I01
I00
tp7342
bg91
tp7343
g1
(g11
g12
(I0
F2.25
I1
F-375.0
tp7344
tp7345
Rp7346
s(g1
(g2
g3
Ntp7347
Rp7348
(g687
I00
NNg927
I00
I00
tp7349
bg514
tp7350
g1
(g11
g12
(I0
F71.47
I20
F-242.65000000000003
tp7351
tp7352
Rp7353
s(g1
(g2
g3
Ntp7354
Rp7355
(g35
I00
g19
I00
g19
I00
I00
tp7356
bg19
tp7357
g1
(g11
g12
(I0
F90.22
I30
F-299.2666666666666
tp7358
tp7359
Rp7360
s(g1
(g2
g3
Ntp7361
Rp7362
(g172
I01
g66
I00
g172
I01
I00
tp7363
bg67
tp7364
g1
(g11
g12
(I0
F9.459999999999999
I2
F-127.0
tp7365
tp7366
Rp7367
s(g1
(g2
g3
Ntp7368
Rp7369
(g180
I00
NNg558
I00
I00
tp7370
bg82
tp7371
g1
(g11
g12
(I0
F125.35999999999997
I41
F-294.3170731707317
tp7372
tp7373
Rp7374
s(g1
(g2
g3
Ntp7375
Rp7376
(g172
I00
g66
I01
g66
I01
I00
tp7377
bg172
tp7378
g1
(g11
g12
(I0
F83.80999999999999
I26
F-277.65384615384613
tp7379
tp7380
Rp7381
s(g1
(g2
g3
Ntp7382
Rp7383
(g91
I00
g91
I00
g18
I00
I01
tp7384
bg18
tp7385
g1
(g11
g12
(I0
F4.91
I1
F-109.0
tp7386
tp7387
Rp7388
s(g1
(g2
g3
Ntp7389
Rp7390
(g91
I00
g91
I00
g35
I00
I01
tp7391
bg35
tp7392
g1
(g11
g12
(I0
F3.19
I1
F-281.0
tp7393
tp7394
Rp7395
s(g1
(g2
g3
Ntp7396
Rp7397
(g18
I01
g91
I00
g91
I00
I01
tp7398
bg91
tp7399
g1
(g11
g12
(I0
F3.05
I1
F-295.0
tp7400
tp7401
Rp7402
s(g1
(g2
g3
Ntp7403
Rp7404
(g18
I00
g19
I01
g91
I00
I00
tp7405
bg18
tp7406
g1
(g11
g12
(I0
F26.6
I7
F-219.99999999999997
tp7407
tp7408
Rp7409
s(g1
(g2
g3
Ntp7410
Rp7411
(g180
I00
NNg370
I00
I00
tp7412
bg82
tp7413
g1
(g11
g12
(I0
F163.17000000000002
I53
F-292.1886792452831
tp7414
tp7415
Rp7416
s(g1
(g2
g3
Ntp7417
Rp7418
(g19
I00
NNg91
I01
I00
tp7419
bg91
tp7420
g1
(g11
g12
(I0
F2.67
I1
F-333.0
tp7421
tp7422
Rp7423
s(g1
(g2
g3
Ntp7424
Rp7425
(g19
I00
g35
I00
g19
I00
I00
tp7426
bg18
tp7427
g1
(g11
g12
(I0
F43.22
I15
F-311.8666666666666
tp7428
tp7429
Rp7430
s(g1
(g2
g3
Ntp7431
Rp7432
(g19
I00
NNg91
I01
I00
tp7433
bg18
tp7434
g1
(g11
g12
(I0
F2.9
I1
F-310.0
tp7435
tp7436
Rp7437
s(g1
(g2
g3
Ntp7438
Rp7439
(g91
I01
g91
I01
g91
I01
I00
tp7440
bg91
tp7441
g1
(g11
g12
(I0
F63.45000000000001
I19
F-266.05263157894734
tp7442
tp7443
Rp7444
s(g1
(g2
g3
Ntp7445
Rp7446
(g275
I00
g275
I00
g1067
I00
I00
tp7447
bg275
tp7448
g1
(g11
g12
(I0
F22.28
I2
F514.0
tp7449
tp7450
Rp7451
s(g1
(g2
g3
Ntp7452
Rp7453
(g19
I00
g18
I01
g18
I01
I00
tp7454
bg18
tp7455
g1
(g11
g12
(I0
F17.68
I6
F-305.33333333333337
tp7456
tp7457
Rp7458
s(g1
(g2
g3
Ntp7459
Rp7460
(g18
I00
NNNNI01
tp7461
bg19
tp7462
g1
(g11
g12
(I0
F35.440000000000005
I9
F-206.22222222222223
tp7463
tp7464
Rp7465
s(g1
(g2
g3
Ntp7466
Rp7467
(g35
I01
g18
I00
g19
I00
I00
tp7468
bg18
tp7469
g1
(g11
g12
(I0
F2.88
I1
F-312.0
tp7470
tp7471
Rp7472
s(g1
(g2
g3
Ntp7473
Rp7474
(g19
I01
g18
I01
g35
I00
I00
tp7475
bg35
tp7476
g1
(g11
g12
(I0
F4.75
I1
F-125.0
tp7477
tp7478
Rp7479
s(g1
(g2
g3
Ntp7480
Rp7481
(g82
I00
NNNNI00
tp7482
bg180
tp7483
g1
(g11
g12
(I0
F402.78999999999985
I131
F-293.92366412213767
tp7484
tp7485
Rp7486
s(g1
(g2
g3
Ntp7487
Rp7488
(g202
I00
g172
I00
g172
I00
I00
tp7489
bg172
tp7490
g1
(g11
g12
(I0
F457.7000000000001
I139
F-271.5971223021585
tp7491
tp7492
Rp7493
s(g1
(g2
g3
Ntp7494
Rp7495
(g9
I01
NNNNI00
tp7496
bg6
tp7497
g1
(g11
g12
(I0
F93.98
I30
F-287.43333333333345
tp7498
tp7499
Rp7500
s(g1
(g2
g3
Ntp7501
Rp7502
(g82
I00
g370
I00
NNI00
tp7503
bg180
tp7504
g1
(g11
g12
(I1
F2823.7900000000027
I1611
F-426.70639354438146
tp7505
tp7506
Rp7507
s(g1
(g2
g3
Ntp7508
Rp7509
(g35
I01
NNg19
I00
I00
tp7510
bg91
tp7511
g1
(g11
g12
(I0
F5.0
I1
F-100.0
tp7512
tp7513
Rp7514
s(g1
(g2
g3
Ntp7515
Rp7516
(g370
I01
g370
I01
NNI01
tp7517
bg370
tp7518
g1
(g11
g12
(I0
F246.07
I122
F-399.51639344262315
tp7519
tp7520
Rp7521
s(g1
(g2
g3
Ntp7522
Rp7523
(g19
I00
g18
I01
NNI00
tp7524
bg18
tp7525
g1
(g11
g12
(I0
F217.13000000000008
I144
F-449.27083333333337
tp7526
tp7527
Rp7528
s(g1
(g2
g3
Ntp7529
Rp7530
(g202
I00
g66
I01
g66
I01
I00
tp7531
bg202
tp7532
g1
(g11
g12
(I1
F35.36
I8
F-158.0
tp7533
tp7534
Rp7535
s(g1
(g2
g3
Ntp7536
Rp7537
(g35
I00
g35
I00
NNI00
tp7538
bg19
tp7539
g1
(g11
g12
(I1
F37.599999999999994
I23
F-437.3913043478262
tp7540
tp7541
Rp7542
s(g1
(g2
g3
Ntp7543
Rp7544
(g18
I00
g19
I01
g19
I01
I00
tp7545
bg21
tp7546
g1
(g11
g12
(I0
F6.01
I2
F-299.5
tp7547
tp7548
Rp7549
s(g1
(g2
g3
Ntp7550
Rp7551
(g217
I01
NNg217
I01
I00
tp7552
bg217
tp7553
g1
(g11
g12
(I0
F31.069999999999997
I9
F-254.77777777777774
tp7554
tp7555
Rp7556
s(g1
(g2
g3
Ntp7557
Rp7558
(g18
I00
NNg35
I01
I00
tp7559
bg18
tp7560
g1
(g11
g12
(I0
F8.14
I3
F-328.66666666666663
tp7561
tp7562
Rp7563
s(g1
(g2
g3
Ntp7564
Rp7565
(g19
I00
g91
I01
g19
I00
I00
tp7566
bg18
tp7567
g1
(g11
g12
(I0
F4.28
I1
F-172.0
tp7568
tp7569
Rp7570
s(g1
(g2
g3
Ntp7571
Rp7572
(g19
I00
NNNNI01
tp7573
bg19
tp7574
g1
(g11
g12
(I1
F164.04999999999995
I52
F-284.51923076923066
tp7575
tp7576
Rp7577
s(g1
(g2
g3
Ntp7578
Rp7579
(g91
I00
g18
I00
g18
I00
I00
tp7580
bg18
tp7581
g1
(g11
g12
(I0
F72.61
I24
F-297.4583333333332
tp7582
tp7583
Rp7584
s(g1
(g2
g3
Ntp7585
Rp7586
(g18
I01
g35
I00
g18
I01
I00
tp7587
bg21
tp7588
g1
(g11
g12
(I0
F53.980000000000004
I18
F-300.1111111111111
tp7589
tp7590
Rp7591
s(g1
(g2
g3
Ntp7592
Rp7593
(g35
I00
g19
I00
g91
I00
I00
tp7594
bg91
tp7595
g1
(g11
g12
(I0
F22.150000000000002
I9
F-353.88888888888886
tp7596
tp7597
Rp7598
s(g1
(g2
g3
Ntp7599
Rp7600
(g67
I00
g66
I01
g66
I01
I01
tp7601
bg67
tp7602
g1
(g11
g12
(I0
F3.2
I1
F-280.0
tp7603
tp7604
Rp7605
s(g1
(g2
g3
Ntp7606
Rp7607
(g35
I01
NNg91
I00
I00
tp7608
bg35
tp7609
g1
(g11
g12
(I0
F8.25
I2
F-187.5
tp7610
tp7611
Rp7612
s(g1
(g2
g3
Ntp7613
Rp7614
(g18
I00
g35
I00
g19
I00
I00
tp7615
bg19
tp7616
g1
(g11
g12
(I0
F24.56
I9
F-327.1111111111111
tp7617
tp7618
Rp7619
s(g1
(g2
g3
Ntp7620
Rp7621
(g19
I00
g35
I00
g18
I00
I00
tp7622
bg91
tp7623
g1
(g11
g12
(I0
F4.63
I1
F-137.0
tp7624
tp7625
Rp7626
s(g1
(g2
g3
Ntp7627
Rp7628
(g35
I01
g18
I00
NNI00
tp7629
bg18
tp7630
g1
(g11
g12
(I0
F43.00999999999999
I27
F-440.7037037037037
tp7631
tp7632
Rp7633
s(g1
(g2
g3
Ntp7634
Rp7635
(g35
I00
g19
I01
g35
I00
I00
tp7636
bg19
tp7637
g1
(g11
g12
(I0
F2.84
I1
F-316.0
tp7638
tp7639
Rp7640
s(g1
(g2
g3
Ntp7641
Rp7642
(g91
I00
g18
I00
g19
I00
I00
tp7643
bg35
tp7644
g1
(g11
g12
(I0
F22.01
I10
F-379.9
tp7645
tp7646
Rp7647
s(g1
(g2
g3
Ntp7648
Rp7649
(g558
I00
NNg82
I00
I00
tp7650
bg558
tp7651
g1
(g11
g12
(I1
F117.71000000000001
I28
F-186.03571428571425
tp7652
tp7653
Rp7654
s(g1
(g2
g3
Ntp7655
Rp7656
(g91
I00
NNg18
I01
I00
tp7657
bg19
tp7658
g1
(g11
g12
(I0
F5.11
I1
F-89.0
tp7659
tp7660
Rp7661
s(g1
(g2
g3
Ntp7662
Rp7663
(g18
I00
g91
I01
g91
I01
I01
tp7664
bg21
tp7665
g1
(g11
g12
(I0
F6.119999999999999
I2
F-294.0
tp7666
tp7667
Rp7668
s(g1
(g2
g3
Ntp7669
Rp7670
(g67
I00
g66
I00
g66
I00
I00
tp7671
bg172
tp7672
g1
(g11
g12
(I1
F185.83000000000007
I76
F-355.48684210526307
tp7673
tp7674
Rp7675
s(g1
(g2
g3
Ntp7676
Rp7677
(g9
I00
g7
I01
NNI00
tp7678
bg7
tp7679
g1
(g11
g12
(I0
F123.61000000000001
I82
F-459.28048780487796
tp7680
tp7681
Rp7682
s(g1
(g2
g3
Ntp7683
Rp7684
(g18
I01
g91
I00
g18
I01
I00
tp7685
bg91
tp7686
g1
(g11
g12
(I0
F2.88
I1
F-312.0
tp7687
tp7688
Rp7689
s(g1
(g2
g3
Ntp7690
Rp7691
(g9
I00
g7
I00
NNI00
tp7692
bg7
tp7693
g1
(g11
g12
(I2
F1123.4800000000002
I608
F-418.2483552631575
tp7694
tp7695
Rp7696
s(g1
(g2
g3
Ntp7697
Rp7698
(g217
I00
NNg217
I00
I00
tp7699
bg217
tp7700
g1
(g11
g12
(I12
F1043.5000000000005
I288
F-238.94791666666663
tp7701
tp7702
Rp7703
s(g1
(g2
g3
Ntp7704
Rp7705
(g664
I01
g505
I00
NNI00
tp7706
bg504
tp7707
g1
(g11
g12
(I0
F124.48
I90
F-462.22222222222234
tp7708
tp7709
Rp7710
s(g1
(g2
g3
Ntp7711
Rp7712
(g18
I00
g18
I00
g19
I00
I00
tp7713
bg35
tp7714
g1
(g11
g12
(I0
F127.25999999999998
I46
F-323.34782608695656
tp7715
tp7716
Rp7717
s(g1
(g2
g3
Ntp7718
Rp7719
(g91
I00
g35
I00
g91
I00
I00
tp7720
bg21
tp7721
g1
(g11
g12
(I0
F0.51
I1
F-549.0
tp7722
tp7723
Rp7724
s(g1
(g2
g3
Ntp7725
Rp7726
(g19
I01
g18
I00
g18
I00
I00
tp7727
bg18
tp7728
g1
(g11
g12
(I0
F17.89
I5
F-242.2
tp7729
tp7730
Rp7731
s(g1
(g2
g3
Ntp7732
Rp7733
(g91
I01
NNg91
I01
I01
tp7734
bg91
tp7735
g1
(g11
g12
(I0
F12.25
I2
F12.5
tp7736
tp7737
Rp7738
s(g1
(g2
g3
Ntp7739
Rp7740
(g35
I00
g18
I01
g35
I00
I00
tp7741
bg21
tp7742
g1
(g11
g12
(I0
F3.01
I1
F-299.0
tp7743
tp7744
Rp7745
s(g1
(g2
g3
Ntp7746
Rp7747
(g19
I01
NNg35
I00
I00
tp7748
bg91
tp7749
g1
(g11
g12
(I0
F8.6
I1
F260.0
tp7750
tp7751
Rp7752
s(g1
(g2
g3
Ntp7753
Rp7754
(g558
I00
NNg370
I00
I00
tp7755
bg180
tp7756
g1
(g11
g12
(I0
F59.72000000000001
I17
F-253.41176470588235
tp7757
tp7758
Rp7759
s(g1
(g2
g3
Ntp7760
Rp7761
(g35
I00
g18
I00
g19
I00
I00
tp7762
bg19
tp7763
g1
(g11
g12
(I0
F41.480000000000004
I14
F-307.57142857142867
tp7764
tp7765
Rp7766
s(g1
(g2
g3
Ntp7767
Rp7768
(g18
I00
g35
I00
g91
I00
I00
tp7769
bg19
tp7770
g1
(g11
g12
(I0
F2.94
I1
F-306.0
tp7771
tp7772
Rp7773
s(g1
(g2
g3
Ntp7774
Rp7775
(g217
I00
g6
I01
NNI00
tp7776
bg151
tp7777
g1
(g11
g12
(I1
F637.9800000000004
I474
F-467.2362869198311
tp7778
tp7779
Rp7780
s(g1
(g2
g3
Ntp7781
Rp7782
(g275
I00
g275
I00
g1067
I00
I00
tp7783
bg277
tp7784
g1
(g11
g12
(I0
F22.28
I2
F514.0
tp7785
tp7786
Rp7787
s(g1
(g2
g3
Ntp7788
Rp7789
(g91
I00
g19
I00
g91
I00
I00
tp7790
bg21
tp7791
g1
(g11
g12
(I0
F36.58
I14
F-338.71428571428584
tp7792
tp7793
Rp7794
s(g1
(g2
g3
Ntp7795
Rp7796
(g217
I00
NNNNI00
tp7797
bg9
tp7798
g1
(g11
g12
(I3
F646.9800000000004
I212
F-296.02830188679235
tp7799
tp7800
Rp7801
s(g1
(g2
g3
Ntp7802
Rp7803
(g67
I00
g202
I00
g67
I00
I00
tp7804
bg202
tp7805
g1
(g11
g12
(I1
F154.45000000000002
I55
F-319.181818181818
tp7806
tp7807
Rp7808
s(g1
(g2
g3
Ntp7809
Rp7810
(g18
I00
g19
I01
g19
I01
I00
tp7811
bg18
tp7812
g1
(g11
g12
(I0
F15.91
I4
F-202.24999999999997
tp7813
tp7814
Rp7815
s(g1
(g2
g3
Ntp7816
Rp7817
(g35
I00
g18
I01
g35
I00
I00
tp7818
bg35
tp7819
g1
(g11
g12
(I0
F4.48
I1
F-152.0
tp7820
tp7821
Rp7822
s(g1
(g2
g3
Ntp7823
Rp7824
(g18
I00
g35
I01
g91
I00
I00
tp7825
bg18
tp7826
g1
(g11
g12
(I0
F3.23
I1
F-277.0
tp7827
tp7828
Rp7829
s(g1
(g2
g3
Ntp7830
Rp7831
(g19
I01
g35
I00
g91
I00
I00
tp7832
bg35
tp7833
g1
(g11
g12
(I0
F5.03
I1
F-97.0
tp7834
tp7835
Rp7836
s(g1
(g2
g3
Ntp7837
Rp7838
(g82
I00
NNg180
I01
I00
tp7839
bg84
tp7840
g1
(g11
g12
(I0
F13.96
I5
F-320.8
tp7841
tp7842
Rp7843
s(g1
(g2
g3
Ntp7844
Rp7845
(g217
I00
NNg6
I01
I00
tp7846
bg151
tp7847
g1
(g11
g12
(I3
F49.24
I8
F15.500000000000014
tp7848
tp7849
Rp7850
s(g1
(g2
g3
Ntp7851
Rp7852
(g172
I00
g66
I00
g66
I00
I00
tp7853
bg348
tp7854
g1
(g11
g12
(I3
F764.8500000000003
I289
F-335.65051903114204
tp7855
tp7856
Rp7857
s(g1
(g2
g3
Ntp7858
Rp7859
(g9
I00
NNNNI00
tp7860
bg6
tp7861
g1
(g11
g12
(I0
F279.99000000000007
I99
F-322.2323232323233
tp7862
tp7863
Rp7864
s(g1
(g2
g3
Ntp7865
Rp7866
(g19
I00
g35
I00
g18
I01
I00
tp7867
bg19
tp7868
g1
(g11
g12
(I0
F36.85000000000001
I12
F-292.9166666666667
tp7869
tp7870
Rp7871
s(g1
(g2
g3
Ntp7872
Rp7873
(g91
I01
g91
I01
g18
I00
I00
tp7874
bg35
tp7875
g1
(g11
g12
(I0
F2.93
I1
F-307.0
tp7876
tp7877
Rp7878
s(g1
(g2
g3
Ntp7879
Rp7880
(g180
I00
g370
I00
NNI01
tp7881
bg558
tp7882
g1
(g11
g12
(I1
F59.559999999999995
I33
F-421.24242424242425
tp7883
tp7884
Rp7885
s(g1
(g2
g3
Ntp7886
Rp7887
(g82
I01
NNNNI00
tp7888
bg558
tp7889
g1
(g11
g12
(I0
F58.46000000000001
I21
F-325.42857142857144
tp7890
tp7891
Rp7892
s(g1
(g2
g3
Ntp7893
Rp7894
(g141
I00
g469
I01
NNI00
tp7895
bg253
tp7896
g1
(g11
g12
(I0
F178.42999999999995
I93
F-409.0645161290321
tp7897
tp7898
Rp7899
s(g1
(g2
g3
Ntp7900
Rp7901
(g9
I01
NNg9
I01
I00
tp7902
bg151
tp7903
g1
(g11
g12
(I0
F9.76
I6
F-437.3333333333333
tp7904
tp7905
Rp7906
s(g1
(g2
g3
Ntp7907
Rp7908
(g6
I00
NNg6
I00
I00
tp7909
bg7
tp7910
g1
(g11
g12
(I0
F188.64
I66
F-315.72727272727263
tp7911
tp7912
Rp7913
s(g1
(g2
g3
Ntp7914
Rp7915
(g18
I00
g19
I00
g91
I00
I00
tp7916
bg19
tp7917
g1
(g11
g12
(I0
F197.19000000000003
I68
F-310.014705882353
tp7918
tp7919
Rp7920
s(g1
(g2
g3
Ntp7921
Rp7922
(g172
I00
g66
I00
g172
I00
I00
tp7923
bg67
tp7924
g1
(g11
g12
(I0
F262.61999999999995
I85
F-291.29411764705895
tp7925
tp7926
Rp7927
s(g1
(g2
g3
Ntp7928
Rp7929
(g202
I01
g202
I01
NNI00
tp7930
bg66
tp7931
g1
(g11
g12
(I0
F147.23000000000002
I92
F-441.4239130434782
tp7932
tp7933
Rp7934
s(g1
(g2
g3
Ntp7935
Rp7936
(g35
I00
g91
I00
g19
I00
I00
tp7937
bg21
tp7938
g1
(g11
g12
(I0
F58.44
I23
F-345.91304347826076
tp7939
tp7940
Rp7941
s(g1
(g2
g3
Ntp7942
Rp7943
(g19
I01
g91
I00
NNI01
tp7944
bg18
tp7945
g1
(g11
g12
(I0
F53.4
I18
F-303.3333333333333
tp7946
tp7947
Rp7948
s(g1
(g2
g3
Ntp7949
Rp7950
(g505
I01
g504
I00
NNI00
tp7951
bg1160
tp7952
g1
(g11
g12
(I0
F121.86000000000001
I70
F-429.62857142857143
tp7953
tp7954
Rp7955
s(g1
(g2
g3
Ntp7956
Rp7957
(g469
I01
NNg469
I01
I00
tp7958
bg253
tp7959
g1
(g11
g12
(I0
F10.21
I3
F-259.66666666666663
tp7960
tp7961
Rp7962
s(g1
(g2
g3
Ntp7963
Rp7964
(g18
I00
g18
I00
g91
I00
I00
tp7965
bg19
tp7966
g1
(g11
g12
(I0
F46.06
I16
F-312.12499999999994
tp7967
tp7968
Rp7969
s(g1
(g2
g3
Ntp7970
Rp7971
(g19
I00
g35
I00
g19
I00
I00
tp7972
bg35
tp7973
g1
(g11
g12
(I0
F41.06
I16
F-346.0625
tp7974
tp7975
Rp7976
s(g1
(g2
g3
Ntp7977
Rp7978
(g18
I00
g91
I01
g91
I01
I01
tp7979
bg18
tp7980
g1
(g11
g12
(I0
F14.350000000000001
I4
F-241.25
tp7981
tp7982
Rp7983
s(g1
(g2
g3
Ntp7984
Rp7985
(g19
I01
g91
I01
g35
I00
I00
tp7986
bg21
tp7987
g1
(g11
g12
(I0
F2.66
I1
F-334.0
tp7988
tp7989
Rp7990
s(g1
(g2
g3
Ntp7991
Rp7992
(g35
I01
g18
I00
g18
I00
I00
tp7993
bg19
tp7994
g1
(g11
g12
(I0
F4.98
I1
F-102.0
tp7995
tp7996
Rp7997
s(g1
(g2
g3
Ntp7998
Rp7999
(g6
I00
g6
I00
NNI01
tp8000
bg6
tp8001
g1
(g11
g12
(I17
F1806.6000000000017
I804
F-377.4763681592039
tp8002
tp8003
Rp8004
s(g1
(g2
g3
Ntp8005
Rp8006
(g275
I00
g275
I00
g275
I00
I00
tp8007
bg275
tp8008
g1
(g11
g12
(I1
F72.03999999999999
I9
F200.44444444444434
tp8009
tp8010
Rp8011
s(g1
(g2
g3
Ntp8012
Rp8013
(g217
I01
g217
I01
NNI00
tp8014
bg7
tp8015
g1
(g11
g12
(I0
F356.56999999999977
I199
F-423.8693467336684
tp8016
tp8017
Rp8018
s(g1
(g2
g3
Ntp8019
Rp8020
(g18
I00
g91
I00
g19
I00
I00
tp8021
bg21
tp8022
g1
(g11
g12
(I1
F146.85000000000002
I49
F-300.30612244897935
tp8023
tp8024
Rp8025
s(g1
(g2
g3
Ntp8026
Rp8027
(g35
I01
g91
I00
g91
I00
I00
tp8028
bg35
tp8029
g1
(g11
g12
(I0
F3.11
I1
F-289.0
tp8030
tp8031
Rp8032
s(g1
(g2
g3
Ntp8033
Rp8034
(g19
I00
g18
I00
g35
I00
I00
tp8035
bg18
tp8036
g1
(g11
g12
(I0
F40.620000000000005
I11
F-230.7272727272727
tp8037
tp8038
Rp8039
s(g1
(g2
g3
Ntp8040
Rp8041
(g35
I00
g18
I00
g35
I00
I00
tp8042
bg19
tp8043
g1
(g11
g12
(I0
F154.70000000000005
I45
F-257.2888888888888
tp8044
tp8045
Rp8046
s(g1
(g2
g3
Ntp8047
Rp8048
(g6
I01
NNNNI01
tp8049
bg151
tp8050
g1
(g11
g12
(I0
F34.57
I16
F-388.0000000000001
tp8051
tp8052
Rp8053
s(g1
(g2
g3
Ntp8054
Rp8055
(g18
I01
g18
I01
g18
I01
I00
tp8056
bg19
tp8057
g1
(g11
g12
(I0
F42.37
I14
F-297.3571428571429
tp8058
tp8059
Rp8060
s(g1
(g2
g3
Ntp8061
Rp8062
(g202
I00
g67
I00
g172
I00
I00
tp8063
bg348
tp8064
g1
(g11
g12
(I0
F435.90999999999997
I158
F-324.1708860759496
tp8065
tp8066
Rp8067
s(g1
(g2
g3
Ntp8068
Rp8069
(g275
I00
g1067
I00
g275
I00
I00
tp8070
bg275
tp8071
g1
(g11
g12
(I2
F299.37999999999994
I78
F-216.17948717948713
tp8072
tp8073
Rp8074
s(g1
(g2
g3
Ntp8075
Rp8076
(g18
I01
NNNNI01
tp8077
bg21
tp8078
g1
(g11
g12
(I0
F0.84
I1
F-516.0
tp8079
tp8080
Rp8081
s(g1
(g2
g3
Ntp8082
Rp8083
(g202
I00
g66
I00
g172
I00
I00
tp8084
bg67
tp8085
g1
(g11
g12
(I0
F191.29
I73
F-337.95890410958907
tp8086
tp8087
Rp8088
s(g1
(g2
g3
Ntp8089
Rp8090
(g18
I00
g91
I01
g35
I01
I00
tp8091
bg35
tp8092
g1
(g11
g12
(I0
F5.9399999999999995
I2
F-303.0
tp8093
tp8094
Rp8095
s(g1
(g2
g3
Ntp8096
Rp8097
(g202
I00
g172
I00
g202
I00
I00
tp8098
bg348
tp8099
g1
(g11
g12
(I0
F86.62
I25
F-253.51999999999995
tp8100
tp8101
Rp8102
s(g1
(g2
g3
Ntp8103
Rp8104
(g6
I00
g6
I00
NNI01
tp8105
bg9
tp8106
g1
(g11
g12
(I2
F724.8900000000001
I369
F-404.8211382113821
tp8107
tp8108
Rp8109
s(g1
(g2
g3
Ntp8110
Rp8111
(g43
I00
g275
I00
NNI00
tp8112
bg44
tp8113
g1
(g11
g12
(I1
F59.660000000000004
I9
F62.88888888888883
tp8114
tp8115
Rp8116
s(g1
(g2
g3
Ntp8117
Rp8118
(g19
I01
g35
I01
NNI00
tp8119
bg18
tp8120
g1
(g11
g12
(I0
F10.71
I11
F-502.6363636363637
tp8121
tp8122
Rp8123
s(g1
(g2
g3
Ntp8124
Rp8125
(g35
I00
g91
I00
g91
I00
I00
tp8126
bg19
tp8127
g1
(g11
g12
(I0
F200.0500000000001
I72
F-322.152777777778
tp8128
tp8129
Rp8130
s(g1
(g2
g3
Ntp8131
Rp8132
(g6
I01
NNNNI00
tp8133
bg6
tp8134
g1
(g11
g12
(I0
F112.48
I38
F-305.1315789473684
tp8135
tp8136
Rp8137
s(g1
(g2
g3
Ntp8138
Rp8139
(g82
I00
NNg180
I00
I00
tp8140
bg558
tp8141
g1
(g11
g12
(I0
F174.61000000000004
I62
F-321.4516129032258
tp8142
tp8143
Rp8144
s(g1
(g2
g3
Ntp8145
Rp8146
(g141
I01
g142
I00
NNI00
tp8147
bg544
tp8148
g1
(g11
g12
(I0
F200.59999999999994
I141
F-463.5460992907804
tp8149
tp8150
Rp8151
s(g1
(g2
g3
Ntp8152
Rp8153
(g91
I00
g18
I00
g91
I00
I00
tp8154
bg21
tp8155
g1
(g11
g12
(I0
F26.83
I10
F-331.70000000000005
tp8156
tp8157
Rp8158
s(g1
(g2
g3
Ntp8159
Rp8160
(g35
I00
g91
I00
g19
I00
I00
tp8161
bg19
tp8162
g1
(g11
g12
(I0
F56.669999999999995
I22
F-342.40909090909076
tp8163
tp8164
Rp8165
s(g1
(g2
g3
Ntp8166
Rp8167
(g19
I01
g18
I01
NNI00
tp8168
bg35
tp8169
g1
(g11
g12
(I0
F116.49999999999993
I66
F-423.4848484848482
tp8170
tp8171
Rp8172
s(g1
(g2
g3
Ntp8173
Rp8174
(g18
I00
g19
I00
g35
I00
I00
tp8175
bg19
tp8176
g1
(g11
g12
(I0
F6.0600000000000005
I2
F-297.0
tp8177
tp8178
Rp8179
s(g1
(g2
g3
Ntp8180
Rp8181
(g18
I00
g35
I00
g18
I00
I00
tp8182
bg91
tp8183
g1
(g11
g12
(I0
F5.86
I3
F-404.66666666666663
tp8184
tp8185
Rp8186
s(g1
(g2
g3
Ntp8187
Rp8188
(g91
I01
g91
I01
g35
I00
I00
tp8189
bg18
tp8190
g1
(g11
g12
(I0
F8.51
I3
F-316.3333333333333
tp8191
tp8192
Rp8193
s(g1
(g2
g3
Ntp8194
Rp8195
(g217
I01
g7
I00
NNI00
tp8196
bg217
tp8197
g1
(g11
g12
(I0
F63.22
I43
F-453.3720930232559
tp8198
tp8199
Rp8200
s(g1
(g2
g3
Ntp8201
Rp8202
(g91
I00
g18
I01
g35
I01
I00
tp8203
bg35
tp8204
g1
(g11
g12
(I0
F2.82
I1
F-318.0
tp8205
tp8206
Rp8207
s(g1
(g2
g3
Ntp8208
Rp8209
(g370
I00
NNg370
I00
I01
tp8210
bg558
tp8211
g1
(g11
g12
(I0
F86.58999999999999
I26
F-270.0384615384615
tp8212
tp8213
Rp8214
s(g1
(g2
g3
Ntp8215
Rp8216
(g202
I00
g172
I00
g67
I00
I00
tp8217
bg67
tp8218
g1
(g11
g12
(I0
F46.37
I11
F-178.4545454545455
tp8219
tp8220
Rp8221
s(g1
(g2
g3
Ntp8222
Rp8223
(g35
I01
g91
I01
g91
I01
I00
tp8224
bg91
tp8225
g1
(g11
g12
(I0
F3.03
I1
F-297.0
tp8226
tp8227
Rp8228
s(g1
(g2
g3
Ntp8229
Rp8230
(g18
I00
g19
I01
g19
I01
I00
tp8231
bg19
tp8232
g1
(g11
g12
(I0
F3.04
I1
F-296.0
tp8233
tp8234
Rp8235
s(g1
(g2
g3
Ntp8236
Rp8237
(g35
I01
NNNNI01
tp8238
bg21
tp8239
g1
(g11
g12
(I0
F2.31
I1
F-369.0
tp8240
tp8241
Rp8242
s(g1
(g2
g3
Ntp8243
Rp8244
(g9
I00
g6
I01
NNI00
tp8245
bg9
tp8246
g1
(g11
g12
(I9
F329.9199999999998
I141
F-369.758865248227
tp8247
tp8248
Rp8249
s(g1
(g2
g3
Ntp8250
Rp8251
(g35
I01
g18
I00
NNI00
tp8252
bg19
tp8253
g1
(g11
g12
(I0
F77.51
I27
F-312.92592592592604
tp8254
tp8255
Rp8256
s(g1
(g2
g3
Ntp8257
Rp8258
(g202
I00
g172
I00
g172
I00
I00
tp8259
bg348
tp8260
g1
(g11
g12
(I1
F416.08999999999986
I146
F-316.80821917808214
tp8261
tp8262
Rp8263
s(g1
(g2
g3
Ntp8264
Rp8265
(g18
I01
g18
I01
g91
I00
I00
tp8266
bg18
tp8267
g1
(g11
g12
(I0
F4.86
I1
F-114.0
tp8268
tp8269
Rp8270
s(g1
(g2
g3
Ntp8271
Rp8272
(g141
I00
NNg141
I00
I00
tp8273
bg142
tp8274
g1
(g11
g12
(I1
F118.26
I21
F-36.85714285714284
tp8275
tp8276
Rp8277
s(g1
(g2
g3
Ntp8278
Rp8279
(g19
I00
g91
I00
g35
I00
I00
tp8280
bg18
tp8281
g1
(g11
g12
(I0
F80.67999999999999
I30
F-331.06666666666655
tp8282
tp8283
Rp8284
s(g1
(g2
g3
Ntp8285
Rp8286
(g91
I00
g19
I00
g18
I01
I00
tp8287
bg21
tp8288
g1
(g11
g12
(I0
F4.49
I1
F-151.0
tp8289
tp8290
Rp8291
s(g1
(g2
g3
Ntp8292
Rp8293
(g9
I01
NNg9
I01
I00
tp8294
bg9
tp8295
g1
(g11
g12
(I5
F84.72
I13
F51.69230769230767
tp8296
tp8297
Rp8298
s(g1
(g2
g3
Ntp8299
Rp8300
(g19
I00
NNg35
I00
I00
tp8301
bg91
tp8302
g1
(g11
g12
(I0
F60.17
I18
F-265.72222222222223
tp8303
tp8304
Rp8305
s(g1
(g2
g3
Ntp8306
Rp8307
(g35
I01
g91
I00
g91
I00
I00
tp8308
bg21
tp8309
g1
(g11
g12
(I0
F2.64
I1
F-336.0
tp8310
tp8311
Rp8312
s(g1
(g2
g3
Ntp8313
Rp8314
(g141
I01
g469
I01
NNI00
tp8315
bg253
tp8316
g1
(g11
g12
(I0
F117.91000000000001
I59
F-401.16949152542355
tp8317
tp8318
Rp8319
s(g1
(g2
g3
Ntp8320
Rp8321
(g91
I00
g35
I01
NNI00
tp8322
bg18
tp8323
g1
(g11
g12
(I0
F0.37
I1
F-563.0
tp8324
tp8325
Rp8326
s(g1
(g2
g3
Ntp8327
Rp8328
(g91
I01
g91
I01
g91
I01
I01
tp8329
bg18
tp8330
g1
(g11
g12
(I0
F39.57
I12
F-270.25
tp8331
tp8332
Rp8333
s(g1
(g2
g3
Ntp8334
Rp8335
(g18
I01
g19
I01
NNI00
tp8336
bg35
tp8337
g1
(g11
g12
(I0
F19.690000000000005
I14
F-459.3571428571429
tp8338
tp8339
Rp8340
s(g1
(g2
g3
Ntp8341
Rp8342
(g35
I00
g19
I01
g91
I00
I00
tp8343
bg21
tp8344
g1
(g11
g12
(I0
F2.71
I1
F-329.0
tp8345
tp8346
Rp8347
s(g1
(g2
g3
Ntp8348
Rp8349
(g35
I01
g91
I00
g35
I01
I00
tp8350
bg18
tp8351
g1
(g11
g12
(I0
F3.05
I1
F-295.0
tp8352
tp8353
Rp8354
s(g1
(g2
g3
Ntp8355
Rp8356
(g217
I01
g7
I00
NNI00
tp8357
bg9
tp8358
g1
(g11
g12
(I0
F70.82999999999998
I44
F-439.02272727272725
tp8359
tp8360
Rp8361
s(g1
(g2
g3
Ntp8362
Rp8363
(g180
I00
NNg370
I01
I00
tp8364
bg558
tp8365
g1
(g11
g12
(I0
F10.32
I3
F-256.0
tp8366
tp8367
Rp8368
s(g1
(g2
g3
Ntp8369
Rp8370
(g35
I00
g18
I00
g19
I00
I00
tp8371
bg18
tp8372
g1
(g11
g12
(I0
F48.47
I14
F-253.7857142857143
tp8373
tp8374
Rp8375
s(g1
(g2
g3
Ntp8376
Rp8377
(g217
I01
g7
I01
NNI00
tp8378
bg217
tp8379
g1
(g11
g12
(I1
F45.46000000000001
I17
F-355.7647058823529
tp8380
tp8381
Rp8382
s(g1
(g2
g3
Ntp8383
Rp8384
(g19
I00
g91
I00
g18
I00
I01
tp8385
bg18
tp8386
g1
(g11
g12
(I0
F24.77
I8
F-290.375
tp8387
tp8388
Rp8389
s(g1
(g2
g3
Ntp8390
Rp8391
(g141
I00
g142
I01
NNI00
tp8392
bg253
tp8393
g1
(g11
g12
(I1
F136.26
I82
F-433.82926829268285
tp8394
tp8395
Rp8396
s(g1
(g2
g3
Ntp8397
Rp8398
(g18
I01
g35
I01
g18
I01
I00
tp8399
bg18
tp8400
g1
(g11
g12
(I0
F21.83
I7
F-288.14285714285717
tp8401
tp8402
Rp8403
s(g1
(g2
g3
Ntp8404
Rp8405
(g19
I01
NNg18
I01
I00
tp8406
bg91
tp8407
g1
(g11
g12
(I0
F6.7
I1
F70.0
tp8408
tp8409
Rp8410
s(g1
(g2
g3
Ntp8411
Rp8412
(g141
I00
g253
I00
NNI00
tp8413
bg141
tp8414
g1
(g11
g12
(I5
F2088.7199999999975
I1057
F-403.7350993377476
tp8415
tp8416
Rp8417
s(g1
(g2
g3
Ntp8418
Rp8419
(g82
I00
NNg180
I00
I00
tp8420
bg180
tp8421
g1
(g11
g12
(I0
F178.34
I62
F-313.40322580645164
tp8422
tp8423
Rp8424
s(g1
(g2
g3
Ntp8425
Rp8426
(g505
I01
g672
I01
NNI01
tp8427
bg1160
tp8428
g1
(g11
g12
(I0
F28.840000000000003
I10
F-311.5999999999999
tp8429
tp8430
Rp8431
s(g1
(g2
g3
Ntp8432
Rp8433
(g18
I00
g19
I00
g91
I01
I00
tp8434
bg35
tp8435
g1
(g11
g12
(I0
F2.81
I1
F-319.0
tp8436
tp8437
Rp8438
s(g1
(g2
g3
Ntp8439
Rp8440
(g217
I01
NNg217
I01
I00
tp8441
bg9
tp8442
g1
(g11
g12
(I0
F34.949999999999996
I9
F-211.66666666666666
tp8443
tp8444
Rp8445
s(g1
(g2
g3
Ntp8446
Rp8447
(g19
I01
g35
I00
g35
I00
I00
tp8448
bg35
tp8449
g1
(g11
g12
(I0
F4.8
I1
F-120.0
tp8450
tp8451
Rp8452
s(g1
(g2
g3
Ntp8453
Rp8454
(g9
I00
g7
I00
NNI00
tp8455
bg151
tp8456
g1
(g11
g12
(I2
F979.8599999999999
I609
F-443.18555008210166
tp8457
tp8458
Rp8459
s(g1
(g2
g3
Ntp8460
Rp8461
(g91
I00
g18
I01
g91
I00
I00
tp8462
bg35
tp8463
g1
(g11
g12
(I0
F2.77
I1
F-323.0
tp8464
tp8465
Rp8466
s(g1
(g2
g3
Ntp8467
Rp8468
(g18
I00
g19
I01
g18
I00
I00
tp8469
bg35
tp8470
g1
(g11
g12
(I0
F5.04
I1
F-96.0
tp8471
tp8472
Rp8473
s(g1
(g2
g3
Ntp8474
Rp8475
(g91
I01
g91
I01
g35
I01
I00
tp8476
bg35
tp8477
g1
(g11
g12
(I0
F9.21
I3
F-293.0
tp8478
tp8479
Rp8480
s(g1
(g2
g3
Ntp8481
Rp8482
(g35
I00
g18
I01
g18
I01
I00
tp8483
bg35
tp8484
g1
(g11
g12
(I0
F17.81
I5
F-243.79999999999998
tp8485
tp8486
Rp8487
s(g1
(g2
g3
Ntp8488
Rp8489
(g9
I00
g217
I00
NNI00
tp8490
bg9
tp8491
g1
(g11
g12
(I24
F1709.7300000000023
I825
F-394.890909090909
tp8492
tp8493
Rp8494
s(g1
(g2
g3
Ntp8495
Rp8496
(g82
I00
g558
I00
NNI00
tp8497
bg84
tp8498
g1
(g11
g12
(I0
F1138.2799999999997
I656
F-426.7225609756096
tp8499
tp8500
Rp8501
s(g1
(g2
g3
Ntp8502
Rp8503
(g6
I00
g6
I00
NNI01
tp8504
bg151
tp8505
g1
(g11
g12
(I2
F771.3400000000003
I368
F-393.74184782608745
tp8506
tp8507
Rp8508
s(g1
(g2
g3
Ntp8509
Rp8510
(g6
I00
g7
I01
NNI00
tp8511
bg217
tp8512
g1
(g11
g12
(I0
F137.9099999999999
I104
F-467.39423076923083
tp8513
tp8514
Rp8515
s(g1
(g2
g3
Ntp8516
Rp8517
(g66
I00
g172
I00
NNI00
tp8518
bg67
tp8519
g1
(g11
g12
(I0
F720.6799999999989
I518
F-464.81274131274176
tp8520
tp8521
Rp8522
s(g1
(g2
g3
Ntp8523
Rp8524
(g18
I00
g91
I00
g35
I01
I00
tp8525
bg91
tp8526
g1
(g11
g12
(I0
F9.370000000000001
I3
F-287.6666666666667
tp8527
tp8528
Rp8529
s(g1
(g2
g3
Ntp8530
Rp8531
(g217
I00
g7
I00
NNI00
tp8532
bg6
tp8533
g1
(g11
g12
(I1
F779.9699999999998
I460
F-435.08913043478276
tp8534
tp8535
Rp8536
s(g1
(g2
g3
Ntp8537
Rp8538
(g217
I01
g217
I01
NNI00
tp8539
bg217
tp8540
g1
(g11
g12
(I0
F344.25
I199
F-427.0100502512558
tp8541
tp8542
Rp8543
s(g1
(g2
g3
Ntp8544
Rp8545
(g91
I01
g19
I01
NNI00
tp8546
bg18
tp8547
g1
(g11
g12
(I0
F52.38000000000001
I40
F-469.05000000000007
tp8548
tp8549
Rp8550
s(g1
(g2
g3
Ntp8551
Rp8552
(g19
I01
g35
I00
g18
I01
I00
tp8553
bg21
tp8554
g1
(g11
g12
(I0
F19.910000000000004
I6
F-268.1666666666667
tp8555
tp8556
Rp8557
s(g1
(g2
g3
Ntp8558
Rp8559
(g18
I00
g91
I01
g35
I01
I00
tp8560
bg18
tp8561
g1
(g11
g12
(I0
F13.82
I4
F-254.5
tp8562
tp8563
Rp8564
s(g1
(g2
g3
Ntp8565
Rp8566
(g172
I00
g66
I00
g66
I00
I00
tp8567
bg66
tp8568
g1
(g11
g12
(I0
F772.9100000000001
I264
F-307.2954545454548
tp8569
tp8570
Rp8571
s(g1
(g2
g3
Ntp8572
Rp8573
(g18
I01
g91
I00
g91
I00
I00
tp8574
bg91
tp8575
g1
(g11
g12
(I0
F108.99999999999999
I34
F-279.4117647058825
tp8576
tp8577
Rp8578
s(g1
(g2
g3
Ntp8579
Rp8580
(g91
I01
NNg91
I01
I01
tp8581
bg21
tp8582
g1
(g11
g12
(I0
F8.18
I2
F-191.0
tp8583
tp8584
Rp8585
s(g1
(g2
g3
Ntp8586
Rp8587
(g505
I00
g672
I01
NNI01
tp8588
bg504
tp8589
g1
(g11
g12
(I0
F42.88000000000001
I17
F-347.7647058823529
tp8590
tp8591
Rp8592
s(g1
(g2
g3
Ntp8593
Rp8594
(g142
I00
g469
I01
NNI01
tp8595
bg142
tp8596
g1
(g11
g12
(I1
F26.870000000000005
I10
F-331.3
tp8597
tp8598
Rp8599
s(g1
(g2
g3
Ntp8600
Rp8601
(g91
I00
g18
I00
g35
I00
I00
tp8602
bg19
tp8603
g1
(g11
g12
(I0
F64.18
I26
F-353.1538461538462
tp8604
tp8605
Rp8606
s(g1
(g2
g3
Ntp8607
Rp8608
(g172
I00
g172
I00
NNI00
tp8609
bg66
tp8610
g1
(g11
g12
(I1
F1370.1499999999996
I641
F-387.7332293291735
tp8611
tp8612
Rp8613
s(g1
(g2
g3
Ntp8614
Rp8615
(g19
I01
g35
I00
g18
I00
I00
tp8616
bg18
tp8617
g1
(g11
g12
(I0
F18.93
I5
F-221.4
tp8618
tp8619
Rp8620
s(g1
(g2
g3
Ntp8621
Rp8622
(g504
I00
NNg505
I00
I00
tp8623
bg672
tp8624
g1
(g11
g12
(I0
F86.95
I24
F-237.70833333333331
tp8625
tp8626
Rp8627
s(g1
(g2
g3
Ntp8628
Rp8629
(g91
I00
g18
I01
g91
I00
I00
tp8630
bg91
tp8631
g1
(g11
g12
(I0
F2.78
I1
F-322.0
tp8632
tp8633
Rp8634
s(g1
(g2
g3
Ntp8635
Rp8636
(g18
I01
g18
I01
g35
I01
I00
tp8637
bg35
tp8638
g1
(g11
g12
(I0
F3.0
I1
F-300.0
tp8639
tp8640
Rp8641
s(g1
(g2
g3
Ntp8642
Rp8643
(g9
I00
NNg217
I01
I00
tp8644
bg151
tp8645
g1
(g11
g12
(I1
F10.94
I1
F494.0
tp8646
tp8647
Rp8648
s(g1
(g2
g3
Ntp8649
Rp8650
(g91
I01
NNg91
I01
I01
tp8651
bg18
tp8652
g1
(g11
g12
(I0
F5.22
I2
F-339.0
tp8653
tp8654
Rp8655
s(g1
(g2
g3
Ntp8656
Rp8657
(g19
I01
g35
I00
g35
I00
I00
tp8658
bg18
tp8659
g1
(g11
g12
(I0
F2.74
I1
F-326.0
tp8660
tp8661
Rp8662
s(g1
(g2
g3
Ntp8663
Rp8664
(g18
I00
g91
I01
g35
I01
I00
tp8665
bg21
tp8666
g1
(g11
g12
(I0
F5.73
I2
F-313.5
tp8667
tp8668
Rp8669
s(g1
(g2
g3
Ntp8670
Rp8671
(g35
I01
g91
I00
NNI01
tp8672
bg35
tp8673
g1
(g11
g12
(I0
F1.18
I1
F-482.0
tp8674
tp8675
Rp8676
s(g1
(g2
g3
Ntp8677
Rp8678
(g35
I00
g91
I01
NNI01
tp8679
bg91
tp8680
g1
(g11
g12
(I0
F3.12
I3
F-496.0
tp8681
tp8682
Rp8683
s(g1
(g2
g3
Ntp8684
Rp8685
(g91
I00
g19
I00
g19
I00
I00
tp8686
bg91
tp8687
g1
(g11
g12
(I0
F165.62999999999994
I63
F-337.95238095238074
tp8688
tp8689
Rp8690
s(g1
(g2
g3
Ntp8691
Rp8692
(g91
I01
g35
I01
NNI00
tp8693
bg21
tp8694
g1
(g11
g12
(I0
F1.27
I1
F-473.0
tp8695
tp8696
Rp8697
s(g1
(g2
g3
Ntp8698
Rp8699
(g202
I00
g66
I00
g202
I00
I00
tp8700
bg66
tp8701
g1
(g11
g12
(I0
F194.95999999999995
I71
F-325.40845070422523
tp8702
tp8703
Rp8704
s(g1
(g2
g3
Ntp8705
Rp8706
(g275
I00
g275
I00
g43
I00
I00
tp8707
bg275
tp8708
g1
(g11
g12
(I0
F17.94
I1
F1194.0
tp8709
tp8710
Rp8711
s(g1
(g2
g3
Ntp8712
Rp8713
(g253
I00
NNNNI01
tp8714
bg544
tp8715
g1
(g11
g12
(I0
F19.7
I9
F-381.1111111111111
tp8716
tp8717
Rp8718
s(g1
(g2
g3
Ntp8719
Rp8720
(g142
I00
NNg253
I00
I00
tp8721
bg469
tp8722
g1
(g11
g12
(I1
F79.77
I22
F-237.40909090909088
tp8723
tp8724
Rp8725
s(g1
(g2
g3
Ntp8726
Rp8727
(g66
I00
g66
I00
g66
I00
I01
tp8728
bg66
tp8729
g1
(g11
g12
(I2
F825.7299999999998
I332
F-352.0451807228924
tp8730
tp8731
Rp8732
s(g1
(g2
g3
Ntp8733
Rp8734
(g19
I00
g19
I00
g35
I00
I00
tp8735
bg91
tp8736
g1
(g11
g12
(I0
F1.9
I1
F-410.0
tp8737
tp8738
Rp8739
s(g1
(g2
g3
Ntp8740
Rp8741
(g558
I01
g370
I01
NNI00
tp8742
bg180
tp8743
g1
(g11
g12
(I0
F61.36000000000001
I36
F-430.25000000000017
tp8744
tp8745
Rp8746
s(g1
(g2
g3
Ntp8747
Rp8748
(g19
I01
g18
I01
g18
I01
I00
tp8749
bg18
tp8750
g1
(g11
g12
(I0
F13.68
I4
F-258.0
tp8751
tp8752
Rp8753
s(g1
(g2
g3
Ntp8754
Rp8755
(g19
I01
g18
I00
g18
I00
I00
tp8756
bg35
tp8757
g1
(g11
g12
(I0
F11.48
I5
F-422.4
tp8758
tp8759
Rp8760
s(g1
(g2
g3
Ntp8761
Rp8762
(g172
I00
g202
I01
NNI00
tp8763
bg67
tp8764
g1
(g11
g12
(I0
F170.24000000000007
I109
F-443.82568807339453
tp8765
tp8766
Rp8767
s(g1
(g2
g3
Ntp8768
Rp8769
(g9
I00
g217
I00
NNI00
tp8770
bg151
tp8771
g1
(g11
g12
(I0
F518.65
I297
F-428.1111111111117
tp8772
tp8773
Rp8774
s(g1
(g2
g3
Ntp8775
Rp8776
(g18
I01
g19
I00
g19
I00
I00
tp8777
bg18
tp8778
g1
(g11
g12
(I0
F6.5
I2
F-275.0
tp8779
tp8780
Rp8781
s(g1
(g2
g3
Ntp8782
Rp8783
(g19
I00
g18
I01
g19
I00
I00
tp8784
bg35
tp8785
g1
(g11
g12
(I0
F2.91
I1
F-309.0
tp8786
tp8787
Rp8788
s(g1
(g2
g3
Ntp8789
Rp8790
(g91
I01
g18
I00
g18
I00
I00
tp8791
bg18
tp8792
g1
(g11
g12
(I0
F2.71
I1
F-329.0
tp8793
tp8794
Rp8795
s(g1
(g2
g3
Ntp8796
Rp8797
(g91
I00
g91
I00
g19
I00
I01
tp8798
bg18
tp8799
g1
(g11
g12
(I0
F8.11
I2
F-194.5
tp8800
tp8801
Rp8802
s(g1
(g2
g3
Ntp8803
Rp8804
(g67
I00
g66
I00
g67
I00
I00
tp8805
bg172
tp8806
g1
(g11
g12
(I1
F148.05000000000004
I51
F-318.41176470588226
tp8807
tp8808
Rp8809
s(g1
(g2
g3
Ntp8810
Rp8811
(g9
I01
g6
I00
NNI00
tp8812
bg151
tp8813
g1
(g11
g12
(I7
F315.36000000000007
I160
F-403.8750000000001
tp8814
tp8815
Rp8816
s(g1
(g2
g3
Ntp8817
Rp8818
(g66
I00
g66
I00
g66
I00
I01
tp8819
bg67
tp8820
g1
(g11
g12
(I2
F371.87000000000006
I163
F-375.69325153374245
tp8821
tp8822
Rp8823
s(g1
(g2
g3
Ntp8824
Rp8825
(g18
I00
g18
I00
g35
I00
I00
tp8826
bg19
tp8827
g1
(g11
g12
(I0
F158.07
I59
F-332.0847457627118
tp8828
tp8829
Rp8830
s(g1
(g2
g3
Ntp8831
Rp8832
(g141
I00
g142
I00
NNI00
tp8833
bg253
tp8834
g1
(g11
g12
(I0
F1117.1899999999996
I656
F-432.8917682926827
tp8835
tp8836
Rp8837
s(g1
(g2
g3
Ntp8838
Rp8839
(g35
I00
g19
I01
g35
I00
I00
tp8840
bg35
tp8841
g1
(g11
g12
(I0
F7.25
I2
F-237.5
tp8842
tp8843
Rp8844
s(g1
(g2
g3
Ntp8845
Rp8846
(g202
I00
g66
I00
g202
I00
I00
tp8847
bg67
tp8848
g1
(g11
g12
(I0
F191.87000000000003
I72
F-333.5138888888887
tp8849
tp8850
Rp8851
s(g1
(g2
g3
Ntp8852
Rp8853
(g67
I00
g202
I00
g172
I00
I00
tp8854
bg348
tp8855
g1
(g11
g12
(I0
F3.8499999999999996
I3
F-471.66666666666663
tp8856
tp8857
Rp8858
s(g1
(g2
g3
Ntp8859
Rp8860
(g82
I00
NNNNI00
tp8861
bg370
tp8862
g1
(g11
g12
(I0
F404.8199999999999
I131
F-293.12213740458026
tp8863
tp8864
Rp8865
s(g1
(g2
g3
Ntp8866
Rp8867
(g19
I00
g19
I00
g18
I00
I00
tp8868
bg18
tp8869
g1
(g11
g12
(I0
F4.9
I1
F-110.0
tp8870
tp8871
Rp8872
s(g1
(g2
g3
Ntp8873
Rp8874
(g66
I00
g172
I01
NNI00
tp8875
bg66
tp8876
g1
(g11
g12
(I1
F430.9499999999999
I287
F-452.56445993031343
tp8877
tp8878
Rp8879
s(g1
(g2
g3
Ntp8880
Rp8881
(g35
I00
g18
I00
g91
I00
I00
tp8882
bg19
tp8883
g1
(g11
g12
(I0
F28.869999999999997
I7
F-187.57142857142856
tp8884
tp8885
Rp8886
s(g1
(g2
g3
Ntp8887
Rp8888
(g91
I01
g91
I01
g19
I00
I00
tp8889
bg21
tp8890
g1
(g11
g12
(I0
F4.94
I1
F-106.0
tp8891
tp8892
Rp8893
s(g1
(g2
g3
Ntp8894
Rp8895
(g91
I00
g19
I00
g91
I00
I00
tp8896
bg91
tp8897
g1
(g11
g12
(I0
F61.559999999999995
I21
F-306.8571428571428
tp8898
tp8899
Rp8900
s(g1
(g2
g3
Ntp8901
Rp8902
(g469
I00
NNg141
I01
I00
tp8903
bg469
tp8904
g1
(g11
g12
(I0
F6.539999999999999
I3
F-382.0
tp8905
tp8906
Rp8907
s(g1
(g2
g3
Ntp8908
Rp8909
(g202
I00
g66
I00
g66
I00
I01
tp8910
bg348
tp8911
g1
(g11
g12
(I0
F219.93999999999994
I93
F-364.5806451612903
tp8912
tp8913
Rp8914
s(g1
(g2
g3
Ntp8915
Rp8916
(g18
I01
NNg35
I01
I00
tp8917
bg91
tp8918
g1
(g11
g12
(I0
F4.93
I1
F-107.0
tp8919
tp8920
Rp8921
s(g1
(g2
g3
Ntp8922
Rp8923
(g19
I00
g91
I00
g19
I00
I01
tp8924
bg91
tp8925
g1
(g11
g12
(I0
F9.16
I3
F-294.6666666666667
tp8926
tp8927
Rp8928
s(g1
(g2
g3
Ntp8929
Rp8930
(g217
I00
g7
I00
NNI00
tp8931
bg9
tp8932
g1
(g11
g12
(I0
F719.0000000000001
I449
F-440.90645879732705
tp8933
tp8934
Rp8935
s(g1
(g2
g3
Ntp8936
Rp8937
(g18
I00
g19
I00
g19
I00
I00
tp8938
bg19
tp8939
g1
(g11
g12
(I0
F103.82
I34
F-294.6470588235295
tp8940
tp8941
Rp8942
s(g1
(g2
g3
Ntp8943
Rp8944
(g202
I00
g67
I00
NNI00
tp8945
bg66
tp8946
g1
(g11
g12
(I0
F85.96000000000001
I60
F-457.2333333333334
tp8947
tp8948
Rp8949
s(g1
(g2
g3
Ntp8950
Rp8951
(g18
I01
g91
I00
g91
I00
I00
tp8952
bg35
tp8953
g1
(g11
g12
(I0
F111.79000000000002
I35
F-280.5999999999999
tp8954
tp8955
Rp8956
s(g1
(g2
g3
Ntp8957
Rp8958
(g91
I00
g91
I00
g18
I00
I01
tp8959
bg91
tp8960
g1
(g11
g12
(I0
F9.23
I3
F-292.3333333333333
tp8961
tp8962
Rp8963
s(g1
(g2
g3
Ntp8964
Rp8965
(g35
I01
g91
I00
NNI01
tp8966
bg21
tp8967
g1
(g11
g12
(I0
F2.94
I1
F-306.0
tp8968
tp8969
Rp8970
s(g1
(g2
g3
Ntp8971
Rp8972
(g66
I00
g172
I01
NNI00
tp8973
bg348
tp8974
g1
(g11
g12
(I0
F192.44000000000005
I134
F-456.38805970149264
tp8975
tp8976
Rp8977
s(g1
(g2
g3
Ntp8978
Rp8979
(g43
I00
g43
I00
g43
I00
I00
tp8980
bg43
tp8981
g1
(g11
g12
(I11
F2726.6000000000035
I925
F-305.9124324324328
tp8982
tp8983
Rp8984
s(g1
(g2
g3
Ntp8985
Rp8986
(g19
I01
NNg91
I01
I00
tp8987
bg19
tp8988
g1
(g11
g12
(I0
F2.75
I1
F-325.0
tp8989
tp8990
Rp8991
s(g1
(g2
g3
Ntp8992
Rp8993
(g19
I00
g35
I00
g18
I01
I00
tp8994
bg18
tp8995
g1
(g11
g12
(I0
F24.8
I8
F-290.0
tp8996
tp8997
Rp8998
s(g1
(g2
g3
Ntp8999
Rp9000
(g7
I00
g6
I00
NNI00
tp9001
bg7
tp9002
g1
(g11
g12
(I38
F8180.099999999999
I4544
F-421.21060739436484
tp9003
tp9004
Rp9005
s(g1
(g2
g3
Ntp9006
Rp9007
(g172
I01
g67
I01
g172
I01
I00
tp9008
bg67
tp9009
g1
(g11
g12
(I1
F41.03000000000001
I10
F-189.7
tp9010
tp9011
Rp9012
s(g1
(g2
g3
Ntp9013
Rp9014
(g66
I00
g202
I00
g202
I00
I00
tp9015
bg348
tp9016
g1
(g11
g12
(I0
F66.81
I25
F-334.91999999999996
tp9017
tp9018
Rp9019
s(g1
(g2
g3
Ntp9020
Rp9021
(g35
I00
NNg19
I01
I00
tp9022
bg19
tp9023
g1
(g11
g12
(I0
F4.19
I1
F-181.0
tp9024
tp9025
Rp9026
s(g1
(g2
g3
Ntp9027
Rp9028
(g202
I00
g66
I01
NNI01
tp9029
bg66
tp9030
g1
(g11
g12
(I0
F49.580000000000005
I17
F-308.35294117647067
tp9031
tp9032
Rp9033
s(g1
(g2
g3
Ntp9034
Rp9035
(g18
I00
NNg91
I01
I01
tp9036
bg18
tp9037
g1
(g11
g12
(I0
F2.96
I1
F-304.0
tp9038
tp9039
Rp9040
s(g1
(g2
g3
Ntp9041
Rp9042
(g19
I00
g19
I00
g35
I00
I00
tp9043
bg19
tp9044
g1
(g11
g12
(I0
F44.78
I18
F-352.1666666666666
tp9045
tp9046
Rp9047
s(g1
(g2
g3
Ntp9048
Rp9049
(g67
I00
g66
I00
g172
I00
I00
tp9050
bg66
tp9051
g1
(g11
g12
(I1
F109.04000000000002
I36
F-297.1111111111111
tp9052
tp9053
Rp9054
s(g1
(g2
g3
Ntp9055
Rp9056
(g82
I00
NNNNI00
tp9057
bg558
tp9058
g1
(g11
g12
(I0
F376.3699999999997
I132
F-319.87121212121247
tp9059
tp9060
Rp9061
s(g1
(g2
g3
Ntp9062
Rp9063
(g180
I00
NNg82
I00
I00
tp9064
bg558
tp9065
g1
(g11
g12
(I0
F85.40000000000002
I24
F-246.875
tp9066
tp9067
Rp9068
s(g1
(g2
g3
Ntp9069
Rp9070
(g91
I01
g18
I00
g35
I01
I00
tp9071
bg35
tp9072
g1
(g11
g12
(I0
F2.52
I1
F-348.0
tp9073
tp9074
Rp9075
s(g1
(g2
g3
Ntp9076
Rp9077
(g67
I00
g202
I00
g172
I00
I00
tp9078
bg67
tp9079
g1
(g11
g12
(I0
F45.45
I14
F-275.35714285714283
tp9080
tp9081
Rp9082
s(g1
(g2
g3
Ntp9083
Rp9084
(g91
I01
NNg35
I00
I00
tp9085
bg35
tp9086
g1
(g11
g12
(I0
F6.67
I1
F67.0
tp9087
tp9088
Rp9089
s(g1
(g2
g3
Ntp9090
Rp9091
(g9
I00
g217
I00
NNI00
tp9092
bg217
tp9093
g1
(g11
g12
(I0
F587.4900000000001
I296
F-403.2837837837837
tp9094
tp9095
Rp9096
s(g1
(g2
g3
Ntp9097
Rp9098
(g217
I01
NNg217
I01
I00
tp9099
bg151
tp9100
g1
(g11
g12
(I4
F92.14999999999999
I17
F-57.94117647058823
tp9101
tp9102
Rp9103
s(g1
(g2
g3
Ntp9104
Rp9105
(g664
I00
NNg672
I00
I00
tp9106
bg505
tp9107
g1
(g11
g12
(I0
F71.71999999999998
I17
F-178.11764705882354
tp9108
tp9109
Rp9110
s(g1
(g2
g3
Ntp9111
Rp9112
(g19
I01
g91
I00
g19
I01
I00
tp9113
bg35
tp9114
g1
(g11
g12
(I0
F2.63
I1
F-337.0
tp9115
tp9116
Rp9117
s(g1
(g2
g3
Ntp9118
Rp9119
(g6
I00
NNNNI01
tp9120
bg9
tp9121
g1
(g11
g12
(I0
F136.66
I53
F-344.18867924528297
tp9122
tp9123
Rp9124
s(g1
(g2
g3
Ntp9125
Rp9126
(g9
I01
NNg9
I01
I00
tp9127
bg217
tp9128
g1
(g11
g12
(I0
F5.320000000000001
I5
F-493.6
tp9129
tp9130
Rp9131
s(g1
(g2
g3
Ntp9132
Rp9133
(g19
I01
NNg91
I00
I00
tp9134
bg19
tp9135
g1
(g11
g12
(I0
F8.969999999999999
I2
F-151.5
tp9136
tp9137
Rp9138
s(g1
(g2
g3
Ntp9139
Rp9140
(g91
I00
g18
I00
g35
I01
I00
tp9141
bg21
tp9142
g1
(g11
g12
(I0
F2.52
I1
F-348.0
tp9143
tp9144
Rp9145
s(g1
(g2
g3
Ntp9146
Rp9147
(g142
I01
g253
I00
NNI00
tp9148
bg142
tp9149
g1
(g11
g12
(I0
F49.03999999999999
I28
F-424.8571428571429
tp9150
tp9151
Rp9152
s(g1
(g2
g3
Ntp9153
Rp9154
(g19
I01
g91
I00
g35
I00
I00
tp9155
bg19
tp9156
g1
(g11
g12
(I0
F3.18
I1
F-282.0
tp9157
tp9158
Rp9159
s(g1
(g2
g3
Ntp9160
Rp9161
(g66
I00
g66
I00
g66
I00
I01
tp9162
bg348
tp9163
g1
(g11
g12
(I0
F377.9499999999998
I150
F-348.58666666666676
tp9164
tp9165
Rp9166
s(g1
(g2
g3
Ntp9167
Rp9168
(g19
I01
NNg18
I00
I00
tp9169
bg18
tp9170
g1
(g11
g12
(I0
F3.03
I1
F-297.0
tp9171
tp9172
Rp9173
s(g1
(g2
g3
Ntp9174
Rp9175
(g558
I00
g558
I00
NNI00
tp9176
bg558
tp9177
g1
(g11
g12
(I25
F737.73
I200
F-232.79
tp9178
tp9179
Rp9180
s(g1
(g2
g3
Ntp9181
Rp9182
(g19
I00
g91
I01
g35
I01
I00
tp9183
bg35
tp9184
g1
(g11
g12
(I0
F2.76
I1
F-324.0
tp9185
tp9186
Rp9187
s(g1
(g2
g3
Ntp9188
Rp9189
(g505
I00
NNg505
I00
I00
tp9190
bg1160
tp9191
g1
(g11
g12
(I0
F72.96000000000001
I19
F-215.99999999999997
tp9192
tp9193
Rp9194
s(g1
(g2
g3
Ntp9195
Rp9196
(g35
I00
g19
I00
g19
I00
I00
tp9197
bg18
tp9198
g1
(g11
g12
(I0
F26.38
I11
F-360.1818181818182
tp9199
tp9200
Rp9201
s(g1
(g2
g3
Ntp9202
Rp9203
(g91
I00
g91
I00
g18
I00
I00
tp9204
bg19
tp9205
g1
(g11
g12
(I0
F419.27
I149
F-318.7315436241611
tp9206
tp9207
Rp9208
s(g1
(g2
g3
Ntp9209
Rp9210
(g19
I01
g35
I01
NNI00
tp9211
bg91
tp9212
g1
(g11
g12
(I0
F0.99
I1
F-501.0
tp9213
tp9214
Rp9215
s(g1
(g2
g3
Ntp9216
Rp9217
(g370
I00
NNNNI01
tp9218
bg180
tp9219
g1
(g11
g12
(I0
F118.05000000000001
I50
F-365.4999999999998
tp9220
tp9221
Rp9222
s.